
ctarget:     file format elf64-x86-64


Disassembly of section .init:

0000000000400cb0 <_init>:
  400cb0:	48 83 ec 08          	sub    $0x8,%rsp
  400cb4:	48 8b 05 3d 33 20 00 	mov    0x20333d(%rip),%rax        # 603ff8 <_DYNAMIC+0x1d0>
  400cbb:	48 85 c0             	test   %rax,%rax
  400cbe:	74 05                	je     400cc5 <_init+0x15>
  400cc0:	e8 2b 01 00 00       	callq  400df0 <__gmon_start__@plt>
  400cc5:	48 83 c4 08          	add    $0x8,%rsp
  400cc9:	c3                   	retq   

Disassembly of section .plt:

0000000000400cd0 <strcasecmp@plt-0x10>:
  400cd0:	ff 35 32 33 20 00    	pushq  0x203332(%rip)        # 604008 <_GLOBAL_OFFSET_TABLE_+0x8>
  400cd6:	ff 25 34 33 20 00    	jmpq   *0x203334(%rip)        # 604010 <_GLOBAL_OFFSET_TABLE_+0x10>
  400cdc:	0f 1f 40 00          	nopl   0x0(%rax)

0000000000400ce0 <strcasecmp@plt>:
  400ce0:	ff 25 32 33 20 00    	jmpq   *0x203332(%rip)        # 604018 <_GLOBAL_OFFSET_TABLE_+0x18>
  400ce6:	68 00 00 00 00       	pushq  $0x0
  400ceb:	e9 e0 ff ff ff       	jmpq   400cd0 <_init+0x20>

0000000000400cf0 <__errno_location@plt>:
  400cf0:	ff 25 2a 33 20 00    	jmpq   *0x20332a(%rip)        # 604020 <_GLOBAL_OFFSET_TABLE_+0x20>
  400cf6:	68 01 00 00 00       	pushq  $0x1
  400cfb:	e9 d0 ff ff ff       	jmpq   400cd0 <_init+0x20>

0000000000400d00 <srandom@plt>:
  400d00:	ff 25 22 33 20 00    	jmpq   *0x203322(%rip)        # 604028 <_GLOBAL_OFFSET_TABLE_+0x28>
  400d06:	68 02 00 00 00       	pushq  $0x2
  400d0b:	e9 c0 ff ff ff       	jmpq   400cd0 <_init+0x20>

0000000000400d10 <strncmp@plt>:
  400d10:	ff 25 1a 33 20 00    	jmpq   *0x20331a(%rip)        # 604030 <_GLOBAL_OFFSET_TABLE_+0x30>
  400d16:	68 03 00 00 00       	pushq  $0x3
  400d1b:	e9 b0 ff ff ff       	jmpq   400cd0 <_init+0x20>

0000000000400d20 <strcpy@plt>:
  400d20:	ff 25 12 33 20 00    	jmpq   *0x203312(%rip)        # 604038 <_GLOBAL_OFFSET_TABLE_+0x38>
  400d26:	68 04 00 00 00       	pushq  $0x4
  400d2b:	e9 a0 ff ff ff       	jmpq   400cd0 <_init+0x20>

0000000000400d30 <puts@plt>:
  400d30:	ff 25 0a 33 20 00    	jmpq   *0x20330a(%rip)        # 604040 <_GLOBAL_OFFSET_TABLE_+0x40>
  400d36:	68 05 00 00 00       	pushq  $0x5
  400d3b:	e9 90 ff ff ff       	jmpq   400cd0 <_init+0x20>

0000000000400d40 <write@plt>:
  400d40:	ff 25 02 33 20 00    	jmpq   *0x203302(%rip)        # 604048 <_GLOBAL_OFFSET_TABLE_+0x48>
  400d46:	68 06 00 00 00       	pushq  $0x6
  400d4b:	e9 80 ff ff ff       	jmpq   400cd0 <_init+0x20>

0000000000400d50 <mmap@plt>:
  400d50:	ff 25 fa 32 20 00    	jmpq   *0x2032fa(%rip)        # 604050 <_GLOBAL_OFFSET_TABLE_+0x50>
  400d56:	68 07 00 00 00       	pushq  $0x7
  400d5b:	e9 70 ff ff ff       	jmpq   400cd0 <_init+0x20>

0000000000400d60 <printf@plt>:
  400d60:	ff 25 f2 32 20 00    	jmpq   *0x2032f2(%rip)        # 604058 <_GLOBAL_OFFSET_TABLE_+0x58>
  400d66:	68 08 00 00 00       	pushq  $0x8
  400d6b:	e9 60 ff ff ff       	jmpq   400cd0 <_init+0x20>

0000000000400d70 <memset@plt>:
  400d70:	ff 25 ea 32 20 00    	jmpq   *0x2032ea(%rip)        # 604060 <_GLOBAL_OFFSET_TABLE_+0x60>
  400d76:	68 09 00 00 00       	pushq  $0x9
  400d7b:	e9 50 ff ff ff       	jmpq   400cd0 <_init+0x20>

0000000000400d80 <alarm@plt>:
  400d80:	ff 25 e2 32 20 00    	jmpq   *0x2032e2(%rip)        # 604068 <_GLOBAL_OFFSET_TABLE_+0x68>
  400d86:	68 0a 00 00 00       	pushq  $0xa
  400d8b:	e9 40 ff ff ff       	jmpq   400cd0 <_init+0x20>

0000000000400d90 <close@plt>:
  400d90:	ff 25 da 32 20 00    	jmpq   *0x2032da(%rip)        # 604070 <_GLOBAL_OFFSET_TABLE_+0x70>
  400d96:	68 0b 00 00 00       	pushq  $0xb
  400d9b:	e9 30 ff ff ff       	jmpq   400cd0 <_init+0x20>

0000000000400da0 <read@plt>:
  400da0:	ff 25 d2 32 20 00    	jmpq   *0x2032d2(%rip)        # 604078 <_GLOBAL_OFFSET_TABLE_+0x78>
  400da6:	68 0c 00 00 00       	pushq  $0xc
  400dab:	e9 20 ff ff ff       	jmpq   400cd0 <_init+0x20>

0000000000400db0 <__libc_start_main@plt>:
  400db0:	ff 25 ca 32 20 00    	jmpq   *0x2032ca(%rip)        # 604080 <_GLOBAL_OFFSET_TABLE_+0x80>
  400db6:	68 0d 00 00 00       	pushq  $0xd
  400dbb:	e9 10 ff ff ff       	jmpq   400cd0 <_init+0x20>

0000000000400dc0 <signal@plt>:
  400dc0:	ff 25 c2 32 20 00    	jmpq   *0x2032c2(%rip)        # 604088 <_GLOBAL_OFFSET_TABLE_+0x88>
  400dc6:	68 0e 00 00 00       	pushq  $0xe
  400dcb:	e9 00 ff ff ff       	jmpq   400cd0 <_init+0x20>

0000000000400dd0 <gethostbyname@plt>:
  400dd0:	ff 25 ba 32 20 00    	jmpq   *0x2032ba(%rip)        # 604090 <_GLOBAL_OFFSET_TABLE_+0x90>
  400dd6:	68 0f 00 00 00       	pushq  $0xf
  400ddb:	e9 f0 fe ff ff       	jmpq   400cd0 <_init+0x20>

0000000000400de0 <fprintf@plt>:
  400de0:	ff 25 b2 32 20 00    	jmpq   *0x2032b2(%rip)        # 604098 <_GLOBAL_OFFSET_TABLE_+0x98>
  400de6:	68 10 00 00 00       	pushq  $0x10
  400deb:	e9 e0 fe ff ff       	jmpq   400cd0 <_init+0x20>

0000000000400df0 <__gmon_start__@plt>:
  400df0:	ff 25 aa 32 20 00    	jmpq   *0x2032aa(%rip)        # 6040a0 <_GLOBAL_OFFSET_TABLE_+0xa0>
  400df6:	68 11 00 00 00       	pushq  $0x11
  400dfb:	e9 d0 fe ff ff       	jmpq   400cd0 <_init+0x20>

0000000000400e00 <strtol@plt>:
  400e00:	ff 25 a2 32 20 00    	jmpq   *0x2032a2(%rip)        # 6040a8 <_GLOBAL_OFFSET_TABLE_+0xa8>
  400e06:	68 12 00 00 00       	pushq  $0x12
  400e0b:	e9 c0 fe ff ff       	jmpq   400cd0 <_init+0x20>

0000000000400e10 <memcpy@plt>:
  400e10:	ff 25 9a 32 20 00    	jmpq   *0x20329a(%rip)        # 6040b0 <_GLOBAL_OFFSET_TABLE_+0xb0>
  400e16:	68 13 00 00 00       	pushq  $0x13
  400e1b:	e9 b0 fe ff ff       	jmpq   400cd0 <_init+0x20>

0000000000400e20 <time@plt>:
  400e20:	ff 25 92 32 20 00    	jmpq   *0x203292(%rip)        # 6040b8 <_GLOBAL_OFFSET_TABLE_+0xb8>
  400e26:	68 14 00 00 00       	pushq  $0x14
  400e2b:	e9 a0 fe ff ff       	jmpq   400cd0 <_init+0x20>

0000000000400e30 <random@plt>:
  400e30:	ff 25 8a 32 20 00    	jmpq   *0x20328a(%rip)        # 6040c0 <_GLOBAL_OFFSET_TABLE_+0xc0>
  400e36:	68 15 00 00 00       	pushq  $0x15
  400e3b:	e9 90 fe ff ff       	jmpq   400cd0 <_init+0x20>

0000000000400e40 <_IO_getc@plt>:
  400e40:	ff 25 82 32 20 00    	jmpq   *0x203282(%rip)        # 6040c8 <_GLOBAL_OFFSET_TABLE_+0xc8>
  400e46:	68 16 00 00 00       	pushq  $0x16
  400e4b:	e9 80 fe ff ff       	jmpq   400cd0 <_init+0x20>

0000000000400e50 <__isoc99_sscanf@plt>:
  400e50:	ff 25 7a 32 20 00    	jmpq   *0x20327a(%rip)        # 6040d0 <_GLOBAL_OFFSET_TABLE_+0xd0>
  400e56:	68 17 00 00 00       	pushq  $0x17
  400e5b:	e9 70 fe ff ff       	jmpq   400cd0 <_init+0x20>

0000000000400e60 <munmap@plt>:
  400e60:	ff 25 72 32 20 00    	jmpq   *0x203272(%rip)        # 6040d8 <_GLOBAL_OFFSET_TABLE_+0xd8>
  400e66:	68 18 00 00 00       	pushq  $0x18
  400e6b:	e9 60 fe ff ff       	jmpq   400cd0 <_init+0x20>

0000000000400e70 <bcopy@plt>:
  400e70:	ff 25 6a 32 20 00    	jmpq   *0x20326a(%rip)        # 6040e0 <_GLOBAL_OFFSET_TABLE_+0xe0>
  400e76:	68 19 00 00 00       	pushq  $0x19
  400e7b:	e9 50 fe ff ff       	jmpq   400cd0 <_init+0x20>

0000000000400e80 <fopen@plt>:
  400e80:	ff 25 62 32 20 00    	jmpq   *0x203262(%rip)        # 6040e8 <_GLOBAL_OFFSET_TABLE_+0xe8>
  400e86:	68 1a 00 00 00       	pushq  $0x1a
  400e8b:	e9 40 fe ff ff       	jmpq   400cd0 <_init+0x20>

0000000000400e90 <getopt@plt>:
  400e90:	ff 25 5a 32 20 00    	jmpq   *0x20325a(%rip)        # 6040f0 <_GLOBAL_OFFSET_TABLE_+0xf0>
  400e96:	68 1b 00 00 00       	pushq  $0x1b
  400e9b:	e9 30 fe ff ff       	jmpq   400cd0 <_init+0x20>

0000000000400ea0 <strtoul@plt>:
  400ea0:	ff 25 52 32 20 00    	jmpq   *0x203252(%rip)        # 6040f8 <_GLOBAL_OFFSET_TABLE_+0xf8>
  400ea6:	68 1c 00 00 00       	pushq  $0x1c
  400eab:	e9 20 fe ff ff       	jmpq   400cd0 <_init+0x20>

0000000000400eb0 <gethostname@plt>:
  400eb0:	ff 25 4a 32 20 00    	jmpq   *0x20324a(%rip)        # 604100 <_GLOBAL_OFFSET_TABLE_+0x100>
  400eb6:	68 1d 00 00 00       	pushq  $0x1d
  400ebb:	e9 10 fe ff ff       	jmpq   400cd0 <_init+0x20>

0000000000400ec0 <sprintf@plt>:
  400ec0:	ff 25 42 32 20 00    	jmpq   *0x203242(%rip)        # 604108 <_GLOBAL_OFFSET_TABLE_+0x108>
  400ec6:	68 1e 00 00 00       	pushq  $0x1e
  400ecb:	e9 00 fe ff ff       	jmpq   400cd0 <_init+0x20>

0000000000400ed0 <exit@plt>:
  400ed0:	ff 25 3a 32 20 00    	jmpq   *0x20323a(%rip)        # 604110 <_GLOBAL_OFFSET_TABLE_+0x110>
  400ed6:	68 1f 00 00 00       	pushq  $0x1f
  400edb:	e9 f0 fd ff ff       	jmpq   400cd0 <_init+0x20>

0000000000400ee0 <connect@plt>:
  400ee0:	ff 25 32 32 20 00    	jmpq   *0x203232(%rip)        # 604118 <_GLOBAL_OFFSET_TABLE_+0x118>
  400ee6:	68 20 00 00 00       	pushq  $0x20
  400eeb:	e9 e0 fd ff ff       	jmpq   400cd0 <_init+0x20>

0000000000400ef0 <socket@plt>:
  400ef0:	ff 25 2a 32 20 00    	jmpq   *0x20322a(%rip)        # 604120 <_GLOBAL_OFFSET_TABLE_+0x120>
  400ef6:	68 21 00 00 00       	pushq  $0x21
  400efb:	e9 d0 fd ff ff       	jmpq   400cd0 <_init+0x20>

Disassembly of section .text:

0000000000400f00 <_start>:
  400f00:	31 ed                	xor    %ebp,%ebp
  400f02:	49 89 d1             	mov    %rdx,%r9
  400f05:	5e                   	pop    %rsi
  400f06:	48 89 e2             	mov    %rsp,%rdx
  400f09:	48 83 e4 f0          	and    $0xfffffffffffffff0,%rsp
  400f0d:	50                   	push   %rax
  400f0e:	54                   	push   %rsp
  400f0f:	49 c7 c0 40 2d 40 00 	mov    $0x402d40,%r8
  400f16:	48 c7 c1 d0 2c 40 00 	mov    $0x402cd0,%rcx
  400f1d:	48 c7 c7 a0 11 40 00 	mov    $0x4011a0,%rdi
  400f24:	e8 87 fe ff ff       	callq  400db0 <__libc_start_main@plt>
  400f29:	f4                   	hlt    
  400f2a:	66 0f 1f 44 00 00    	nopw   0x0(%rax,%rax,1)

0000000000400f30 <deregister_tm_clones>:
  400f30:	55                   	push   %rbp
  400f31:	b8 b0 44 60 00       	mov    $0x6044b0,%eax
  400f36:	48 3d b0 44 60 00    	cmp    $0x6044b0,%rax
  400f3c:	48 89 e5             	mov    %rsp,%rbp
  400f3f:	74 17                	je     400f58 <deregister_tm_clones+0x28>
  400f41:	b8 00 00 00 00       	mov    $0x0,%eax
  400f46:	48 85 c0             	test   %rax,%rax
  400f49:	74 0d                	je     400f58 <deregister_tm_clones+0x28>
  400f4b:	5d                   	pop    %rbp
  400f4c:	bf b0 44 60 00       	mov    $0x6044b0,%edi
  400f51:	ff e0                	jmpq   *%rax
  400f53:	0f 1f 44 00 00       	nopl   0x0(%rax,%rax,1)
  400f58:	5d                   	pop    %rbp
  400f59:	c3                   	retq   
  400f5a:	66 0f 1f 44 00 00    	nopw   0x0(%rax,%rax,1)

0000000000400f60 <register_tm_clones>:
  400f60:	be b0 44 60 00       	mov    $0x6044b0,%esi
  400f65:	55                   	push   %rbp
  400f66:	48 81 ee b0 44 60 00 	sub    $0x6044b0,%rsi
  400f6d:	48 89 e5             	mov    %rsp,%rbp
  400f70:	48 c1 fe 03          	sar    $0x3,%rsi
  400f74:	48 89 f0             	mov    %rsi,%rax
  400f77:	48 c1 e8 3f          	shr    $0x3f,%rax
  400f7b:	48 01 c6             	add    %rax,%rsi
  400f7e:	48 d1 fe             	sar    %rsi
  400f81:	74 15                	je     400f98 <register_tm_clones+0x38>
  400f83:	b8 00 00 00 00       	mov    $0x0,%eax
  400f88:	48 85 c0             	test   %rax,%rax
  400f8b:	74 0b                	je     400f98 <register_tm_clones+0x38>
  400f8d:	5d                   	pop    %rbp
  400f8e:	bf b0 44 60 00       	mov    $0x6044b0,%edi
  400f93:	ff e0                	jmpq   *%rax
  400f95:	0f 1f 00             	nopl   (%rax)
  400f98:	5d                   	pop    %rbp
  400f99:	c3                   	retq   
  400f9a:	66 0f 1f 44 00 00    	nopw   0x0(%rax,%rax,1)

0000000000400fa0 <__do_global_dtors_aux>:
  400fa0:	80 3d 31 35 20 00 00 	cmpb   $0x0,0x203531(%rip)        # 6044d8 <completed.6940>
  400fa7:	75 17                	jne    400fc0 <__do_global_dtors_aux+0x20>
  400fa9:	55                   	push   %rbp
  400faa:	48 89 e5             	mov    %rsp,%rbp
  400fad:	e8 7e ff ff ff       	callq  400f30 <deregister_tm_clones>
  400fb2:	c6 05 1f 35 20 00 01 	movb   $0x1,0x20351f(%rip)        # 6044d8 <completed.6940>
  400fb9:	5d                   	pop    %rbp
  400fba:	c3                   	retq   
  400fbb:	0f 1f 44 00 00       	nopl   0x0(%rax,%rax,1)
  400fc0:	f3 c3                	repz retq 
  400fc2:	0f 1f 40 00          	nopl   0x0(%rax)
  400fc6:	66 2e 0f 1f 84 00 00 	nopw   %cs:0x0(%rax,%rax,1)
  400fcd:	00 00 00 

0000000000400fd0 <frame_dummy>:
  400fd0:	55                   	push   %rbp
  400fd1:	48 89 e5             	mov    %rsp,%rbp
  400fd4:	5d                   	pop    %rbp
  400fd5:	eb 89                	jmp    400f60 <register_tm_clones>

0000000000400fd7 <usage>:
  400fd7:	48 83 ec 08          	sub    $0x8,%rsp
  400fdb:	48 89 fe             	mov    %rdi,%rsi
  400fde:	83 3d 23 35 20 00 00 	cmpl   $0x0,0x203523(%rip)        # 604508 <is_checker>
  400fe5:	74 41                	je     401028 <usage+0x51>
  400fe7:	bf 58 2d 40 00       	mov    $0x402d58,%edi
  400fec:	b8 00 00 00 00       	mov    $0x0,%eax
  400ff1:	e8 6a fd ff ff       	callq  400d60 <printf@plt>
  400ff6:	bf 90 2d 40 00       	mov    $0x402d90,%edi
  400ffb:	e8 30 fd ff ff       	callq  400d30 <puts@plt>
  401000:	bf 08 2f 40 00       	mov    $0x402f08,%edi
  401005:	e8 26 fd ff ff       	callq  400d30 <puts@plt>
  40100a:	bf b8 2d 40 00       	mov    $0x402db8,%edi
  40100f:	e8 1c fd ff ff       	callq  400d30 <puts@plt>
  401014:	bf 22 2f 40 00       	mov    $0x402f22,%edi
  401019:	e8 12 fd ff ff       	callq  400d30 <puts@plt>
  40101e:	bf 00 00 00 00       	mov    $0x0,%edi
  401023:	e8 a8 fe ff ff       	callq  400ed0 <exit@plt>
  401028:	bf 3e 2f 40 00       	mov    $0x402f3e,%edi
  40102d:	b8 00 00 00 00       	mov    $0x0,%eax
  401032:	e8 29 fd ff ff       	callq  400d60 <printf@plt>
  401037:	bf e0 2d 40 00       	mov    $0x402de0,%edi
  40103c:	e8 ef fc ff ff       	callq  400d30 <puts@plt>
  401041:	bf 08 2e 40 00       	mov    $0x402e08,%edi
  401046:	e8 e5 fc ff ff       	callq  400d30 <puts@plt>
  40104b:	bf 5c 2f 40 00       	mov    $0x402f5c,%edi
  401050:	e8 db fc ff ff       	callq  400d30 <puts@plt>
  401055:	eb c7                	jmp    40101e <usage+0x47>

0000000000401057 <initialize_target>:
  401057:	55                   	push   %rbp
  401058:	53                   	push   %rbx
  401059:	48 81 ec 08 21 00 00 	sub    $0x2108,%rsp
  401060:	89 f5                	mov    %esi,%ebp
  401062:	89 3d 90 34 20 00    	mov    %edi,0x203490(%rip)        # 6044f8 <check_level>
  401068:	8b 3d fa 30 20 00    	mov    0x2030fa(%rip),%edi        # 604168 <target_id>
  40106e:	e8 33 1c 00 00       	callq  402ca6 <gencookie>
  401073:	89 05 8b 34 20 00    	mov    %eax,0x20348b(%rip)        # 604504 <cookie>
  401079:	89 c7                	mov    %eax,%edi
  40107b:	e8 26 1c 00 00       	callq  402ca6 <gencookie>
  401080:	89 05 7a 34 20 00    	mov    %eax,0x20347a(%rip)        # 604500 <authkey>
  401086:	8b 05 dc 30 20 00    	mov    0x2030dc(%rip),%eax        # 604168 <target_id>
  40108c:	8d 78 01             	lea    0x1(%rax),%edi
  40108f:	e8 6c fc ff ff       	callq  400d00 <srandom@plt>
  401094:	e8 97 fd ff ff       	callq  400e30 <random@plt>
  401099:	89 c7                	mov    %eax,%edi
  40109b:	e8 b8 02 00 00       	callq  401358 <scramble>
  4010a0:	89 c3                	mov    %eax,%ebx
  4010a2:	85 ed                	test   %ebp,%ebp
  4010a4:	75 3d                	jne    4010e3 <initialize_target+0x8c>
  4010a6:	b8 00 00 00 00       	mov    $0x0,%eax
  4010ab:	01 d8                	add    %ebx,%eax
  4010ad:	0f b7 c0             	movzwl %ax,%eax
  4010b0:	8d 04 c5 00 01 00 00 	lea    0x100(,%rax,8),%eax
  4010b7:	89 c0                	mov    %eax,%eax
  4010b9:	48 89 05 e0 33 20 00 	mov    %rax,0x2033e0(%rip)        # 6044a0 <buf_offset>
  4010c0:	c6 05 61 40 20 00 63 	movb   $0x63,0x204061(%rip)        # 605128 <target_prefix>
  4010c7:	83 3d da 33 20 00 00 	cmpl   $0x0,0x2033da(%rip)        # 6044a8 <notify>
  4010ce:	74 09                	je     4010d9 <initialize_target+0x82>
  4010d0:	83 3d 31 34 20 00 00 	cmpl   $0x0,0x203431(%rip)        # 604508 <is_checker>
  4010d7:	74 22                	je     4010fb <initialize_target+0xa4>
  4010d9:	48 81 c4 08 21 00 00 	add    $0x2108,%rsp
  4010e0:	5b                   	pop    %rbx
  4010e1:	5d                   	pop    %rbp
  4010e2:	c3                   	retq   
  4010e3:	bf 00 00 00 00       	mov    $0x0,%edi
  4010e8:	e8 33 fd ff ff       	callq  400e20 <time@plt>
  4010ed:	89 c7                	mov    %eax,%edi
  4010ef:	e8 0c fc ff ff       	callq  400d00 <srandom@plt>
  4010f4:	e8 37 fd ff ff       	callq  400e30 <random@plt>
  4010f9:	eb b0                	jmp    4010ab <initialize_target+0x54>
  4010fb:	be 00 01 00 00       	mov    $0x100,%esi
  401100:	48 89 e7             	mov    %rsp,%rdi
  401103:	e8 a8 fd ff ff       	callq  400eb0 <gethostname@plt>
  401108:	89 c5                	mov    %eax,%ebp
  40110a:	85 c0                	test   %eax,%eax
  40110c:	75 23                	jne    401131 <initialize_target+0xda>
  40110e:	89 c3                	mov    %eax,%ebx
  401110:	48 63 c3             	movslq %ebx,%rax
  401113:	48 8b 3c c5 80 41 60 	mov    0x604180(,%rax,8),%rdi
  40111a:	00 
  40111b:	48 85 ff             	test   %rdi,%rdi
  40111e:	74 2a                	je     40114a <initialize_target+0xf3>
  401120:	48 89 e6             	mov    %rsp,%rsi
  401123:	e8 b8 fb ff ff       	callq  400ce0 <strcasecmp@plt>
  401128:	85 c0                	test   %eax,%eax
  40112a:	74 19                	je     401145 <initialize_target+0xee>
  40112c:	83 c3 01             	add    $0x1,%ebx
  40112f:	eb df                	jmp    401110 <initialize_target+0xb9>
  401131:	bf 38 2e 40 00       	mov    $0x402e38,%edi
  401136:	e8 f5 fb ff ff       	callq  400d30 <puts@plt>
  40113b:	bf 08 00 00 00       	mov    $0x8,%edi
  401140:	e8 8b fd ff ff       	callq  400ed0 <exit@plt>
  401145:	bd 01 00 00 00       	mov    $0x1,%ebp
  40114a:	85 ed                	test   %ebp,%ebp
  40114c:	74 36                	je     401184 <initialize_target+0x12d>
  40114e:	48 8d bc 24 00 01 00 	lea    0x100(%rsp),%rdi
  401155:	00 
  401156:	e8 de 18 00 00       	callq  402a39 <init_driver>
  40115b:	85 c0                	test   %eax,%eax
  40115d:	0f 89 76 ff ff ff    	jns    4010d9 <initialize_target+0x82>
  401163:	48 8d b4 24 00 01 00 	lea    0x100(%rsp),%rsi
  40116a:	00 
  40116b:	bf b0 2e 40 00       	mov    $0x402eb0,%edi
  401170:	b8 00 00 00 00       	mov    $0x0,%eax
  401175:	e8 e6 fb ff ff       	callq  400d60 <printf@plt>
  40117a:	bf 08 00 00 00       	mov    $0x8,%edi
  40117f:	e8 4c fd ff ff       	callq  400ed0 <exit@plt>
  401184:	48 89 e6             	mov    %rsp,%rsi
  401187:	bf 70 2e 40 00       	mov    $0x402e70,%edi
  40118c:	b8 00 00 00 00       	mov    $0x0,%eax
  401191:	e8 ca fb ff ff       	callq  400d60 <printf@plt>
  401196:	bf 08 00 00 00       	mov    $0x8,%edi
  40119b:	e8 30 fd ff ff       	callq  400ed0 <exit@plt>

00000000004011a0 <main>:
  4011a0:	41 56                	push   %r14
  4011a2:	41 55                	push   %r13
  4011a4:	41 54                	push   %r12
  4011a6:	55                   	push   %rbp
  4011a7:	53                   	push   %rbx
  4011a8:	41 89 fc             	mov    %edi,%r12d
  4011ab:	48 89 f3             	mov    %rsi,%rbx
  4011ae:	be 21 1e 40 00       	mov    $0x401e21,%esi
  4011b3:	bf 0b 00 00 00       	mov    $0xb,%edi
  4011b8:	e8 03 fc ff ff       	callq  400dc0 <signal@plt>
  4011bd:	be d3 1d 40 00       	mov    $0x401dd3,%esi
  4011c2:	bf 07 00 00 00       	mov    $0x7,%edi
  4011c7:	e8 f4 fb ff ff       	callq  400dc0 <signal@plt>
  4011cc:	be 6f 1e 40 00       	mov    $0x401e6f,%esi
  4011d1:	bf 04 00 00 00       	mov    $0x4,%edi
  4011d6:	e8 e5 fb ff ff       	callq  400dc0 <signal@plt>
  4011db:	83 3d 26 33 20 00 00 	cmpl   $0x0,0x203326(%rip)        # 604508 <is_checker>
  4011e2:	75 24                	jne    401208 <main+0x68>
  4011e4:	bd 75 2f 40 00       	mov    $0x402f75,%ebp
  4011e9:	48 8b 05 d0 32 20 00 	mov    0x2032d0(%rip),%rax        # 6044c0 <stdin@@GLIBC_2.2.5>
  4011f0:	48 89 05 f9 32 20 00 	mov    %rax,0x2032f9(%rip)        # 6044f0 <infile>
  4011f7:	41 bd 00 00 00 00    	mov    $0x0,%r13d
  4011fd:	41 be 00 00 00 00    	mov    $0x0,%r14d
  401203:	e9 80 00 00 00       	jmpq   401288 <main+0xe8>
  401208:	be bd 1e 40 00       	mov    $0x401ebd,%esi
  40120d:	bf 0e 00 00 00       	mov    $0xe,%edi
  401212:	e8 a9 fb ff ff       	callq  400dc0 <signal@plt>
  401217:	bf 05 00 00 00       	mov    $0x5,%edi
  40121c:	e8 5f fb ff ff       	callq  400d80 <alarm@plt>
  401221:	bd 7a 2f 40 00       	mov    $0x402f7a,%ebp
  401226:	eb c1                	jmp    4011e9 <main+0x49>
  401228:	48 8b 3b             	mov    (%rbx),%rdi
  40122b:	e8 a7 fd ff ff       	callq  400fd7 <usage>
  401230:	be dd 32 40 00       	mov    $0x4032dd,%esi
  401235:	48 8b 3d 8c 32 20 00 	mov    0x20328c(%rip),%rdi        # 6044c8 <optarg@@GLIBC_2.2.5>
  40123c:	e8 3f fc ff ff       	callq  400e80 <fopen@plt>
  401241:	48 89 05 a8 32 20 00 	mov    %rax,0x2032a8(%rip)        # 6044f0 <infile>
  401248:	48 85 c0             	test   %rax,%rax
  40124b:	75 3b                	jne    401288 <main+0xe8>
  40124d:	48 8b 15 74 32 20 00 	mov    0x203274(%rip),%rdx        # 6044c8 <optarg@@GLIBC_2.2.5>
  401254:	be 82 2f 40 00       	mov    $0x402f82,%esi
  401259:	48 8b 3d 70 32 20 00 	mov    0x203270(%rip),%rdi        # 6044d0 <stderr@@GLIBC_2.2.5>
  401260:	e8 7b fb ff ff       	callq  400de0 <fprintf@plt>
  401265:	b8 01 00 00 00       	mov    $0x1,%eax
  40126a:	e9 c2 00 00 00       	jmpq   401331 <main+0x191>
  40126f:	ba 10 00 00 00       	mov    $0x10,%edx
  401274:	be 00 00 00 00       	mov    $0x0,%esi
  401279:	48 8b 3d 48 32 20 00 	mov    0x203248(%rip),%rdi        # 6044c8 <optarg@@GLIBC_2.2.5>
  401280:	e8 1b fc ff ff       	callq  400ea0 <strtoul@plt>
  401285:	41 89 c6             	mov    %eax,%r14d
  401288:	48 89 ea             	mov    %rbp,%rdx
  40128b:	48 89 de             	mov    %rbx,%rsi
  40128e:	44 89 e7             	mov    %r12d,%edi
  401291:	e8 fa fb ff ff       	callq  400e90 <getopt@plt>
  401296:	3c ff                	cmp    $0xff,%al
  401298:	74 52                	je     4012ec <main+0x14c>
  40129a:	0f be f0             	movsbl %al,%esi
  40129d:	83 e8 61             	sub    $0x61,%eax
  4012a0:	3c 10                	cmp    $0x10,%al
  4012a2:	77 31                	ja     4012d5 <main+0x135>
  4012a4:	0f b6 c0             	movzbl %al,%eax
  4012a7:	ff 24 c5 c0 2f 40 00 	jmpq   *0x402fc0(,%rax,8)
  4012ae:	ba 0a 00 00 00       	mov    $0xa,%edx
  4012b3:	be 00 00 00 00       	mov    $0x0,%esi
  4012b8:	48 8b 3d 09 32 20 00 	mov    0x203209(%rip),%rdi        # 6044c8 <optarg@@GLIBC_2.2.5>
  4012bf:	e8 3c fb ff ff       	callq  400e00 <strtol@plt>
  4012c4:	41 89 c5             	mov    %eax,%r13d
  4012c7:	eb bf                	jmp    401288 <main+0xe8>
  4012c9:	c7 05 d5 31 20 00 00 	movl   $0x0,0x2031d5(%rip)        # 6044a8 <notify>
  4012d0:	00 00 00 
  4012d3:	eb b3                	jmp    401288 <main+0xe8>
  4012d5:	bf 9f 2f 40 00       	mov    $0x402f9f,%edi
  4012da:	b8 00 00 00 00       	mov    $0x0,%eax
  4012df:	e8 7c fa ff ff       	callq  400d60 <printf@plt>
  4012e4:	48 8b 3b             	mov    (%rbx),%rdi
  4012e7:	e8 eb fc ff ff       	callq  400fd7 <usage>
  4012ec:	be 00 00 00 00       	mov    $0x0,%esi
  4012f1:	44 89 ef             	mov    %r13d,%edi
  4012f4:	e8 5e fd ff ff       	callq  401057 <initialize_target>
  4012f9:	83 3d 08 32 20 00 00 	cmpl   $0x0,0x203208(%rip)        # 604508 <is_checker>
  401300:	74 09                	je     40130b <main+0x16b>
  401302:	44 39 35 f7 31 20 00 	cmp    %r14d,0x2031f7(%rip)        # 604500 <authkey>
  401309:	75 2f                	jne    40133a <main+0x19a>
  40130b:	8b 35 f3 31 20 00    	mov    0x2031f3(%rip),%esi        # 604504 <cookie>
  401311:	bf b2 2f 40 00       	mov    $0x402fb2,%edi
  401316:	b8 00 00 00 00       	mov    $0x0,%eax
  40131b:	e8 40 fa ff ff       	callq  400d60 <printf@plt>
  401320:	48 8b 3d 79 31 20 00 	mov    0x203179(%rip),%rdi        # 6044a0 <buf_offset>
  401327:	e8 62 0c 00 00       	callq  401f8e <stable_launch>
  40132c:	b8 00 00 00 00       	mov    $0x0,%eax
  401331:	5b                   	pop    %rbx
  401332:	5d                   	pop    %rbp
  401333:	41 5c                	pop    %r12
  401335:	41 5d                	pop    %r13
  401337:	41 5e                	pop    %r14
  401339:	c3                   	retq   
  40133a:	44 89 f6             	mov    %r14d,%esi
  40133d:	bf d8 2e 40 00       	mov    $0x402ed8,%edi
  401342:	b8 00 00 00 00       	mov    $0x0,%eax
  401347:	e8 14 fa ff ff       	callq  400d60 <printf@plt>
  40134c:	b8 00 00 00 00       	mov    $0x0,%eax
  401351:	e8 79 07 00 00       	callq  401acf <check_fail>
  401356:	eb b3                	jmp    40130b <main+0x16b>

0000000000401358 <scramble>:
  401358:	b8 00 00 00 00       	mov    $0x0,%eax
  40135d:	eb 11                	jmp    401370 <scramble+0x18>
  40135f:	69 d0 51 04 00 00    	imul   $0x451,%eax,%edx
  401365:	01 fa                	add    %edi,%edx
  401367:	89 c1                	mov    %eax,%ecx
  401369:	89 54 8c d0          	mov    %edx,-0x30(%rsp,%rcx,4)
  40136d:	83 c0 01             	add    $0x1,%eax
  401370:	83 f8 09             	cmp    $0x9,%eax
  401373:	76 ea                	jbe    40135f <scramble+0x7>
  401375:	8b 44 24 f0          	mov    -0x10(%rsp),%eax
  401379:	69 c0 53 48 00 00    	imul   $0x4853,%eax,%eax
  40137f:	89 44 24 f0          	mov    %eax,-0x10(%rsp)
  401383:	8b 44 24 f4          	mov    -0xc(%rsp),%eax
  401387:	69 c0 eb 85 00 00    	imul   $0x85eb,%eax,%eax
  40138d:	89 44 24 f4          	mov    %eax,-0xc(%rsp)
  401391:	8b 44 24 d0          	mov    -0x30(%rsp),%eax
  401395:	69 c0 37 ac 00 00    	imul   $0xac37,%eax,%eax
  40139b:	89 44 24 d0          	mov    %eax,-0x30(%rsp)
  40139f:	8b 44 24 dc          	mov    -0x24(%rsp),%eax
  4013a3:	69 c0 bf 15 00 00    	imul   $0x15bf,%eax,%eax
  4013a9:	89 44 24 dc          	mov    %eax,-0x24(%rsp)
  4013ad:	8b 44 24 e4          	mov    -0x1c(%rsp),%eax
  4013b1:	69 c0 e7 91 00 00    	imul   $0x91e7,%eax,%eax
  4013b7:	89 44 24 e4          	mov    %eax,-0x1c(%rsp)
  4013bb:	8b 44 24 dc          	mov    -0x24(%rsp),%eax
  4013bf:	69 c0 3b c6 00 00    	imul   $0xc63b,%eax,%eax
  4013c5:	89 44 24 dc          	mov    %eax,-0x24(%rsp)
  4013c9:	8b 44 24 e4          	mov    -0x1c(%rsp),%eax
  4013cd:	69 c0 df 4f 00 00    	imul   $0x4fdf,%eax,%eax
  4013d3:	89 44 24 e4          	mov    %eax,-0x1c(%rsp)
  4013d7:	8b 44 24 f4          	mov    -0xc(%rsp),%eax
  4013db:	69 c0 3a 01 00 00    	imul   $0x13a,%eax,%eax
  4013e1:	89 44 24 f4          	mov    %eax,-0xc(%rsp)
  4013e5:	8b 44 24 d8          	mov    -0x28(%rsp),%eax
  4013e9:	69 c0 4f 46 00 00    	imul   $0x464f,%eax,%eax
  4013ef:	89 44 24 d8          	mov    %eax,-0x28(%rsp)
  4013f3:	8b 44 24 e0          	mov    -0x20(%rsp),%eax
  4013f7:	69 c0 81 cc 00 00    	imul   $0xcc81,%eax,%eax
  4013fd:	89 44 24 e0          	mov    %eax,-0x20(%rsp)
  401401:	8b 44 24 d0          	mov    -0x30(%rsp),%eax
  401405:	69 c0 17 16 00 00    	imul   $0x1617,%eax,%eax
  40140b:	89 44 24 d0          	mov    %eax,-0x30(%rsp)
  40140f:	8b 44 24 dc          	mov    -0x24(%rsp),%eax
  401413:	69 c0 a1 84 00 00    	imul   $0x84a1,%eax,%eax
  401419:	89 44 24 dc          	mov    %eax,-0x24(%rsp)
  40141d:	8b 44 24 d4          	mov    -0x2c(%rsp),%eax
  401421:	69 c0 2d 73 00 00    	imul   $0x732d,%eax,%eax
  401427:	89 44 24 d4          	mov    %eax,-0x2c(%rsp)
  40142b:	8b 44 24 d8          	mov    -0x28(%rsp),%eax
  40142f:	69 c0 d0 20 00 00    	imul   $0x20d0,%eax,%eax
  401435:	89 44 24 d8          	mov    %eax,-0x28(%rsp)
  401439:	8b 44 24 e0          	mov    -0x20(%rsp),%eax
  40143d:	69 c0 c6 77 00 00    	imul   $0x77c6,%eax,%eax
  401443:	89 44 24 e0          	mov    %eax,-0x20(%rsp)
  401447:	8b 44 24 d4          	mov    -0x2c(%rsp),%eax
  40144b:	69 c0 17 42 00 00    	imul   $0x4217,%eax,%eax
  401451:	89 44 24 d4          	mov    %eax,-0x2c(%rsp)
  401455:	8b 44 24 d4          	mov    -0x2c(%rsp),%eax
  401459:	69 c0 ce 6f 00 00    	imul   $0x6fce,%eax,%eax
  40145f:	89 44 24 d4          	mov    %eax,-0x2c(%rsp)
  401463:	8b 44 24 e8          	mov    -0x18(%rsp),%eax
  401467:	69 c0 03 d6 00 00    	imul   $0xd603,%eax,%eax
  40146d:	89 44 24 e8          	mov    %eax,-0x18(%rsp)
  401471:	8b 44 24 d8          	mov    -0x28(%rsp),%eax
  401475:	69 c0 15 af 00 00    	imul   $0xaf15,%eax,%eax
  40147b:	89 44 24 d8          	mov    %eax,-0x28(%rsp)
  40147f:	8b 44 24 d0          	mov    -0x30(%rsp),%eax
  401483:	69 c0 e5 6c 00 00    	imul   $0x6ce5,%eax,%eax
  401489:	89 44 24 d0          	mov    %eax,-0x30(%rsp)
  40148d:	8b 44 24 d0          	mov    -0x30(%rsp),%eax
  401491:	69 c0 91 c9 00 00    	imul   $0xc991,%eax,%eax
  401497:	89 44 24 d0          	mov    %eax,-0x30(%rsp)
  40149b:	8b 44 24 f4          	mov    -0xc(%rsp),%eax
  40149f:	69 c0 bf b0 00 00    	imul   $0xb0bf,%eax,%eax
  4014a5:	89 44 24 f4          	mov    %eax,-0xc(%rsp)
  4014a9:	8b 44 24 d0          	mov    -0x30(%rsp),%eax
  4014ad:	69 c0 c1 55 00 00    	imul   $0x55c1,%eax,%eax
  4014b3:	89 44 24 d0          	mov    %eax,-0x30(%rsp)
  4014b7:	8b 44 24 e0          	mov    -0x20(%rsp),%eax
  4014bb:	69 c0 2c ae 00 00    	imul   $0xae2c,%eax,%eax
  4014c1:	89 44 24 e0          	mov    %eax,-0x20(%rsp)
  4014c5:	8b 44 24 f4          	mov    -0xc(%rsp),%eax
  4014c9:	69 c0 8e 1c 00 00    	imul   $0x1c8e,%eax,%eax
  4014cf:	89 44 24 f4          	mov    %eax,-0xc(%rsp)
  4014d3:	8b 44 24 dc          	mov    -0x24(%rsp),%eax
  4014d7:	69 c0 0b de 00 00    	imul   $0xde0b,%eax,%eax
  4014dd:	89 44 24 dc          	mov    %eax,-0x24(%rsp)
  4014e1:	8b 44 24 e8          	mov    -0x18(%rsp),%eax
  4014e5:	69 c0 a1 0c 00 00    	imul   $0xca1,%eax,%eax
  4014eb:	89 44 24 e8          	mov    %eax,-0x18(%rsp)
  4014ef:	8b 44 24 dc          	mov    -0x24(%rsp),%eax
  4014f3:	69 c0 ba a0 00 00    	imul   $0xa0ba,%eax,%eax
  4014f9:	89 44 24 dc          	mov    %eax,-0x24(%rsp)
  4014fd:	8b 44 24 ec          	mov    -0x14(%rsp),%eax
  401501:	69 c0 8f 25 00 00    	imul   $0x258f,%eax,%eax
  401507:	89 44 24 ec          	mov    %eax,-0x14(%rsp)
  40150b:	8b 44 24 ec          	mov    -0x14(%rsp),%eax
  40150f:	69 c0 95 bd 00 00    	imul   $0xbd95,%eax,%eax
  401515:	89 44 24 ec          	mov    %eax,-0x14(%rsp)
  401519:	8b 44 24 e8          	mov    -0x18(%rsp),%eax
  40151d:	69 c0 7d 24 00 00    	imul   $0x247d,%eax,%eax
  401523:	89 44 24 e8          	mov    %eax,-0x18(%rsp)
  401527:	8b 44 24 e8          	mov    -0x18(%rsp),%eax
  40152b:	69 c0 6f 5d 00 00    	imul   $0x5d6f,%eax,%eax
  401531:	89 44 24 e8          	mov    %eax,-0x18(%rsp)
  401535:	8b 44 24 d8          	mov    -0x28(%rsp),%eax
  401539:	69 c0 af c7 00 00    	imul   $0xc7af,%eax,%eax
  40153f:	89 44 24 d8          	mov    %eax,-0x28(%rsp)
  401543:	8b 44 24 d0          	mov    -0x30(%rsp),%eax
  401547:	69 c0 52 b0 00 00    	imul   $0xb052,%eax,%eax
  40154d:	89 44 24 d0          	mov    %eax,-0x30(%rsp)
  401551:	8b 44 24 d4          	mov    -0x2c(%rsp),%eax
  401555:	69 c0 34 1f 00 00    	imul   $0x1f34,%eax,%eax
  40155b:	89 44 24 d4          	mov    %eax,-0x2c(%rsp)
  40155f:	8b 44 24 dc          	mov    -0x24(%rsp),%eax
  401563:	69 c0 c1 b7 00 00    	imul   $0xb7c1,%eax,%eax
  401569:	89 44 24 dc          	mov    %eax,-0x24(%rsp)
  40156d:	8b 44 24 f0          	mov    -0x10(%rsp),%eax
  401571:	69 c0 57 50 00 00    	imul   $0x5057,%eax,%eax
  401577:	89 44 24 f0          	mov    %eax,-0x10(%rsp)
  40157b:	8b 44 24 f4          	mov    -0xc(%rsp),%eax
  40157f:	69 c0 36 02 00 00    	imul   $0x236,%eax,%eax
  401585:	89 44 24 f4          	mov    %eax,-0xc(%rsp)
  401589:	8b 44 24 d8          	mov    -0x28(%rsp),%eax
  40158d:	69 c0 7a 1a 00 00    	imul   $0x1a7a,%eax,%eax
  401593:	89 44 24 d8          	mov    %eax,-0x28(%rsp)
  401597:	8b 44 24 d8          	mov    -0x28(%rsp),%eax
  40159b:	69 c0 29 42 00 00    	imul   $0x4229,%eax,%eax
  4015a1:	89 44 24 d8          	mov    %eax,-0x28(%rsp)
  4015a5:	8b 44 24 e0          	mov    -0x20(%rsp),%eax
  4015a9:	69 c0 0f 2b 00 00    	imul   $0x2b0f,%eax,%eax
  4015af:	89 44 24 e0          	mov    %eax,-0x20(%rsp)
  4015b3:	8b 44 24 d4          	mov    -0x2c(%rsp),%eax
  4015b7:	69 c0 ae 69 00 00    	imul   $0x69ae,%eax,%eax
  4015bd:	89 44 24 d4          	mov    %eax,-0x2c(%rsp)
  4015c1:	8b 44 24 e0          	mov    -0x20(%rsp),%eax
  4015c5:	69 c0 e1 82 00 00    	imul   $0x82e1,%eax,%eax
  4015cb:	89 44 24 e0          	mov    %eax,-0x20(%rsp)
  4015cf:	8b 44 24 d8          	mov    -0x28(%rsp),%eax
  4015d3:	69 c0 80 b7 00 00    	imul   $0xb780,%eax,%eax
  4015d9:	89 44 24 d8          	mov    %eax,-0x28(%rsp)
  4015dd:	8b 44 24 d4          	mov    -0x2c(%rsp),%eax
  4015e1:	69 c0 f3 cb 00 00    	imul   $0xcbf3,%eax,%eax
  4015e7:	89 44 24 d4          	mov    %eax,-0x2c(%rsp)
  4015eb:	8b 44 24 dc          	mov    -0x24(%rsp),%eax
  4015ef:	69 c0 c6 45 00 00    	imul   $0x45c6,%eax,%eax
  4015f5:	89 44 24 dc          	mov    %eax,-0x24(%rsp)
  4015f9:	8b 44 24 f4          	mov    -0xc(%rsp),%eax
  4015fd:	69 c0 c1 74 00 00    	imul   $0x74c1,%eax,%eax
  401603:	89 44 24 f4          	mov    %eax,-0xc(%rsp)
  401607:	8b 44 24 ec          	mov    -0x14(%rsp),%eax
  40160b:	69 c0 bd 84 00 00    	imul   $0x84bd,%eax,%eax
  401611:	89 44 24 ec          	mov    %eax,-0x14(%rsp)
  401615:	8b 44 24 e4          	mov    -0x1c(%rsp),%eax
  401619:	69 c0 a7 d6 00 00    	imul   $0xd6a7,%eax,%eax
  40161f:	89 44 24 e4          	mov    %eax,-0x1c(%rsp)
  401623:	8b 44 24 d4          	mov    -0x2c(%rsp),%eax
  401627:	69 c0 35 b3 00 00    	imul   $0xb335,%eax,%eax
  40162d:	89 44 24 d4          	mov    %eax,-0x2c(%rsp)
  401631:	8b 44 24 d0          	mov    -0x30(%rsp),%eax
  401635:	69 c0 46 52 00 00    	imul   $0x5246,%eax,%eax
  40163b:	89 44 24 d0          	mov    %eax,-0x30(%rsp)
  40163f:	8b 44 24 f4          	mov    -0xc(%rsp),%eax
  401643:	69 c0 a0 de 00 00    	imul   $0xdea0,%eax,%eax
  401649:	89 44 24 f4          	mov    %eax,-0xc(%rsp)
  40164d:	8b 44 24 ec          	mov    -0x14(%rsp),%eax
  401651:	69 c0 77 d3 00 00    	imul   $0xd377,%eax,%eax
  401657:	89 44 24 ec          	mov    %eax,-0x14(%rsp)
  40165b:	8b 44 24 f4          	mov    -0xc(%rsp),%eax
  40165f:	69 c0 b6 48 00 00    	imul   $0x48b6,%eax,%eax
  401665:	89 44 24 f4          	mov    %eax,-0xc(%rsp)
  401669:	8b 44 24 e0          	mov    -0x20(%rsp),%eax
  40166d:	69 c0 39 91 00 00    	imul   $0x9139,%eax,%eax
  401673:	89 44 24 e0          	mov    %eax,-0x20(%rsp)
  401677:	8b 44 24 dc          	mov    -0x24(%rsp),%eax
  40167b:	69 c0 fa 24 00 00    	imul   $0x24fa,%eax,%eax
  401681:	89 44 24 dc          	mov    %eax,-0x24(%rsp)
  401685:	8b 44 24 f0          	mov    -0x10(%rsp),%eax
  401689:	69 c0 14 ab 00 00    	imul   $0xab14,%eax,%eax
  40168f:	89 44 24 f0          	mov    %eax,-0x10(%rsp)
  401693:	8b 44 24 dc          	mov    -0x24(%rsp),%eax
  401697:	69 c0 fa f3 00 00    	imul   $0xf3fa,%eax,%eax
  40169d:	89 44 24 dc          	mov    %eax,-0x24(%rsp)
  4016a1:	8b 44 24 d0          	mov    -0x30(%rsp),%eax
  4016a5:	69 c0 10 99 00 00    	imul   $0x9910,%eax,%eax
  4016ab:	89 44 24 d0          	mov    %eax,-0x30(%rsp)
  4016af:	8b 44 24 e8          	mov    -0x18(%rsp),%eax
  4016b3:	69 c0 66 d6 00 00    	imul   $0xd666,%eax,%eax
  4016b9:	89 44 24 e8          	mov    %eax,-0x18(%rsp)
  4016bd:	8b 44 24 e8          	mov    -0x18(%rsp),%eax
  4016c1:	69 c0 8f 20 00 00    	imul   $0x208f,%eax,%eax
  4016c7:	89 44 24 e8          	mov    %eax,-0x18(%rsp)
  4016cb:	8b 44 24 d0          	mov    -0x30(%rsp),%eax
  4016cf:	69 c0 75 55 00 00    	imul   $0x5575,%eax,%eax
  4016d5:	89 44 24 d0          	mov    %eax,-0x30(%rsp)
  4016d9:	8b 44 24 d8          	mov    -0x28(%rsp),%eax
  4016dd:	69 c0 61 bf 00 00    	imul   $0xbf61,%eax,%eax
  4016e3:	89 44 24 d8          	mov    %eax,-0x28(%rsp)
  4016e7:	8b 44 24 d8          	mov    -0x28(%rsp),%eax
  4016eb:	69 c0 c1 d1 00 00    	imul   $0xd1c1,%eax,%eax
  4016f1:	89 44 24 d8          	mov    %eax,-0x28(%rsp)
  4016f5:	8b 44 24 e4          	mov    -0x1c(%rsp),%eax
  4016f9:	69 c0 41 0f 00 00    	imul   $0xf41,%eax,%eax
  4016ff:	89 44 24 e4          	mov    %eax,-0x1c(%rsp)
  401703:	8b 44 24 e4          	mov    -0x1c(%rsp),%eax
  401707:	69 c0 e3 8b 00 00    	imul   $0x8be3,%eax,%eax
  40170d:	89 44 24 e4          	mov    %eax,-0x1c(%rsp)
  401711:	8b 44 24 f4          	mov    -0xc(%rsp),%eax
  401715:	69 c0 ed ef 00 00    	imul   $0xefed,%eax,%eax
  40171b:	89 44 24 f4          	mov    %eax,-0xc(%rsp)
  40171f:	8b 44 24 e8          	mov    -0x18(%rsp),%eax
  401723:	69 c0 24 04 00 00    	imul   $0x424,%eax,%eax
  401729:	89 44 24 e8          	mov    %eax,-0x18(%rsp)
  40172d:	8b 44 24 ec          	mov    -0x14(%rsp),%eax
  401731:	69 c0 5a 4b 00 00    	imul   $0x4b5a,%eax,%eax
  401737:	89 44 24 ec          	mov    %eax,-0x14(%rsp)
  40173b:	8b 44 24 d0          	mov    -0x30(%rsp),%eax
  40173f:	69 c0 56 b1 00 00    	imul   $0xb156,%eax,%eax
  401745:	89 44 24 d0          	mov    %eax,-0x30(%rsp)
  401749:	8b 44 24 d0          	mov    -0x30(%rsp),%eax
  40174d:	69 c0 bb d7 00 00    	imul   $0xd7bb,%eax,%eax
  401753:	89 44 24 d0          	mov    %eax,-0x30(%rsp)
  401757:	8b 44 24 e4          	mov    -0x1c(%rsp),%eax
  40175b:	69 c0 dd 98 00 00    	imul   $0x98dd,%eax,%eax
  401761:	89 44 24 e4          	mov    %eax,-0x1c(%rsp)
  401765:	8b 44 24 d4          	mov    -0x2c(%rsp),%eax
  401769:	69 c0 f8 64 00 00    	imul   $0x64f8,%eax,%eax
  40176f:	89 44 24 d4          	mov    %eax,-0x2c(%rsp)
  401773:	8b 44 24 e0          	mov    -0x20(%rsp),%eax
  401777:	69 c0 c5 b0 00 00    	imul   $0xb0c5,%eax,%eax
  40177d:	89 44 24 e0          	mov    %eax,-0x20(%rsp)
  401781:	8b 44 24 ec          	mov    -0x14(%rsp),%eax
  401785:	69 c0 51 38 00 00    	imul   $0x3851,%eax,%eax
  40178b:	89 44 24 ec          	mov    %eax,-0x14(%rsp)
  40178f:	8b 44 24 e8          	mov    -0x18(%rsp),%eax
  401793:	69 c0 0c 63 00 00    	imul   $0x630c,%eax,%eax
  401799:	89 44 24 e8          	mov    %eax,-0x18(%rsp)
  40179d:	8b 44 24 dc          	mov    -0x24(%rsp),%eax
  4017a1:	69 c0 57 a3 00 00    	imul   $0xa357,%eax,%eax
  4017a7:	89 44 24 dc          	mov    %eax,-0x24(%rsp)
  4017ab:	8b 44 24 e0          	mov    -0x20(%rsp),%eax
  4017af:	69 c0 30 ee 00 00    	imul   $0xee30,%eax,%eax
  4017b5:	89 44 24 e0          	mov    %eax,-0x20(%rsp)
  4017b9:	8b 44 24 e8          	mov    -0x18(%rsp),%eax
  4017bd:	69 c0 b3 92 00 00    	imul   $0x92b3,%eax,%eax
  4017c3:	89 44 24 e8          	mov    %eax,-0x18(%rsp)
  4017c7:	8b 44 24 e0          	mov    -0x20(%rsp),%eax
  4017cb:	69 c0 c0 f8 00 00    	imul   $0xf8c0,%eax,%eax
  4017d1:	89 44 24 e0          	mov    %eax,-0x20(%rsp)
  4017d5:	8b 44 24 d4          	mov    -0x2c(%rsp),%eax
  4017d9:	69 c0 e9 44 00 00    	imul   $0x44e9,%eax,%eax
  4017df:	89 44 24 d4          	mov    %eax,-0x2c(%rsp)
  4017e3:	8b 44 24 d0          	mov    -0x30(%rsp),%eax
  4017e7:	69 c0 7b 03 00 00    	imul   $0x37b,%eax,%eax
  4017ed:	89 44 24 d0          	mov    %eax,-0x30(%rsp)
  4017f1:	8b 44 24 f0          	mov    -0x10(%rsp),%eax
  4017f5:	69 c0 26 ef 00 00    	imul   $0xef26,%eax,%eax
  4017fb:	89 44 24 f0          	mov    %eax,-0x10(%rsp)
  4017ff:	8b 44 24 d4          	mov    -0x2c(%rsp),%eax
  401803:	69 c0 3b f8 00 00    	imul   $0xf83b,%eax,%eax
  401809:	89 44 24 d4          	mov    %eax,-0x2c(%rsp)
  40180d:	8b 44 24 ec          	mov    -0x14(%rsp),%eax
  401811:	69 c0 7b 54 00 00    	imul   $0x547b,%eax,%eax
  401817:	89 44 24 ec          	mov    %eax,-0x14(%rsp)
  40181b:	8b 44 24 d8          	mov    -0x28(%rsp),%eax
  40181f:	69 c0 15 17 00 00    	imul   $0x1715,%eax,%eax
  401825:	89 44 24 d8          	mov    %eax,-0x28(%rsp)
  401829:	8b 44 24 e8          	mov    -0x18(%rsp),%eax
  40182d:	69 c0 e1 7f 00 00    	imul   $0x7fe1,%eax,%eax
  401833:	89 44 24 e8          	mov    %eax,-0x18(%rsp)
  401837:	8b 44 24 f4          	mov    -0xc(%rsp),%eax
  40183b:	69 c0 05 af 00 00    	imul   $0xaf05,%eax,%eax
  401841:	89 44 24 f4          	mov    %eax,-0xc(%rsp)
  401845:	8b 44 24 f0          	mov    -0x10(%rsp),%eax
  401849:	69 c0 c9 3c 00 00    	imul   $0x3cc9,%eax,%eax
  40184f:	89 44 24 f0          	mov    %eax,-0x10(%rsp)
  401853:	8b 44 24 d8          	mov    -0x28(%rsp),%eax
  401857:	69 c0 e1 e2 00 00    	imul   $0xe2e1,%eax,%eax
  40185d:	89 44 24 d8          	mov    %eax,-0x28(%rsp)
  401861:	8b 44 24 e8          	mov    -0x18(%rsp),%eax
  401865:	69 c0 f5 e6 00 00    	imul   $0xe6f5,%eax,%eax
  40186b:	89 44 24 e8          	mov    %eax,-0x18(%rsp)
  40186f:	8b 44 24 d8          	mov    -0x28(%rsp),%eax
  401873:	69 c0 fa cd 00 00    	imul   $0xcdfa,%eax,%eax
  401879:	89 44 24 d8          	mov    %eax,-0x28(%rsp)
  40187d:	8b 44 24 e8          	mov    -0x18(%rsp),%eax
  401881:	69 c0 6f fe 00 00    	imul   $0xfe6f,%eax,%eax
  401887:	89 44 24 e8          	mov    %eax,-0x18(%rsp)
  40188b:	8b 44 24 ec          	mov    -0x14(%rsp),%eax
  40188f:	69 c0 04 ed 00 00    	imul   $0xed04,%eax,%eax
  401895:	89 44 24 ec          	mov    %eax,-0x14(%rsp)
  401899:	8b 44 24 e0          	mov    -0x20(%rsp),%eax
  40189d:	69 c0 1c 7c 00 00    	imul   $0x7c1c,%eax,%eax
  4018a3:	89 44 24 e0          	mov    %eax,-0x20(%rsp)
  4018a7:	ba 00 00 00 00       	mov    $0x0,%edx
  4018ac:	b8 00 00 00 00       	mov    $0x0,%eax
  4018b1:	eb 0b                	jmp    4018be <scramble+0x566>
  4018b3:	89 d1                	mov    %edx,%ecx
  4018b5:	8b 4c 8c d0          	mov    -0x30(%rsp,%rcx,4),%ecx
  4018b9:	01 c8                	add    %ecx,%eax
  4018bb:	83 c2 01             	add    $0x1,%edx
  4018be:	83 fa 09             	cmp    $0x9,%edx
  4018c1:	76 f0                	jbe    4018b3 <scramble+0x55b>
  4018c3:	f3 c3                	repz retq 

00000000004018c5 <getbuf>:
  4018c5:	48 83 ec 28          	sub    $0x28,%rsp
  4018c9:	48 89 e7             	mov    %rsp,%rdi
  4018cc:	e8 2d 02 00 00       	callq  401afe <Gets>
  4018d1:	b8 01 00 00 00       	mov    $0x1,%eax
  4018d6:	48 83 c4 28          	add    $0x28,%rsp
  4018da:	c3                   	retq   

00000000004018db <touch1>:
  4018db:	48 83 ec 08          	sub    $0x8,%rsp
  4018df:	c7 05 13 2c 20 00 01 	movl   $0x1,0x202c13(%rip)        # 6044fc <vlevel>
  4018e6:	00 00 00 
  4018e9:	bf 35 31 40 00       	mov    $0x403135,%edi
  4018ee:	e8 3d f4 ff ff       	callq  400d30 <puts@plt>
  4018f3:	bf 01 00 00 00       	mov    $0x1,%edi
  4018f8:	e8 fc 03 00 00       	callq  401cf9 <validate>
  4018fd:	bf 00 00 00 00       	mov    $0x0,%edi
  401902:	e8 c9 f5 ff ff       	callq  400ed0 <exit@plt>

0000000000401907 <touch2>:
  401907:	48 83 ec 08          	sub    $0x8,%rsp
  40190b:	89 fe                	mov    %edi,%esi
  40190d:	c7 05 e5 2b 20 00 02 	movl   $0x2,0x202be5(%rip)        # 6044fc <vlevel>
  401914:	00 00 00 
  401917:	39 3d e7 2b 20 00    	cmp    %edi,0x202be7(%rip)        # 604504 <cookie>
  40191d:	74 23                	je     401942 <touch2+0x3b>
  40191f:	bf 80 31 40 00       	mov    $0x403180,%edi
  401924:	b8 00 00 00 00       	mov    $0x0,%eax
  401929:	e8 32 f4 ff ff       	callq  400d60 <printf@plt>
  40192e:	bf 02 00 00 00       	mov    $0x2,%edi
  401933:	e8 73 04 00 00       	callq  401dab <fail>
  401938:	bf 00 00 00 00       	mov    $0x0,%edi
  40193d:	e8 8e f5 ff ff       	callq  400ed0 <exit@plt>
  401942:	bf 58 31 40 00       	mov    $0x403158,%edi
  401947:	b8 00 00 00 00       	mov    $0x0,%eax
  40194c:	e8 0f f4 ff ff       	callq  400d60 <printf@plt>
  401951:	bf 02 00 00 00       	mov    $0x2,%edi
  401956:	e8 9e 03 00 00       	callq  401cf9 <validate>
  40195b:	eb db                	jmp    401938 <touch2+0x31>

000000000040195d <hexmatch>:
  40195d:	41 54                	push   %r12
  40195f:	55                   	push   %rbp
  401960:	53                   	push   %rbx
  401961:	48 83 ec 70          	sub    $0x70,%rsp
  401965:	89 fd                	mov    %edi,%ebp
  401967:	48 89 f3             	mov    %rsi,%rbx
  40196a:	e8 c1 f4 ff ff       	callq  400e30 <random@plt>
  40196f:	48 89 c1             	mov    %rax,%rcx
  401972:	48 ba 0b d7 a3 70 3d 	mov    $0xa3d70a3d70a3d70b,%rdx
  401979:	0a d7 a3 
  40197c:	48 f7 ea             	imul   %rdx
  40197f:	48 01 ca             	add    %rcx,%rdx
  401982:	48 c1 fa 06          	sar    $0x6,%rdx
  401986:	48 89 c8             	mov    %rcx,%rax
  401989:	48 c1 f8 3f          	sar    $0x3f,%rax
  40198d:	48 29 c2             	sub    %rax,%rdx
  401990:	48 8d 04 92          	lea    (%rdx,%rdx,4),%rax
  401994:	48 8d 14 80          	lea    (%rax,%rax,4),%rdx
  401998:	48 8d 04 95 00 00 00 	lea    0x0(,%rdx,4),%rax
  40199f:	00 
  4019a0:	48 29 c1             	sub    %rax,%rcx
  4019a3:	4c 8d 24 0c          	lea    (%rsp,%rcx,1),%r12
  4019a7:	89 ea                	mov    %ebp,%edx
  4019a9:	be 52 31 40 00       	mov    $0x403152,%esi
  4019ae:	4c 89 e7             	mov    %r12,%rdi
  4019b1:	b8 00 00 00 00       	mov    $0x0,%eax
  4019b6:	e8 05 f5 ff ff       	callq  400ec0 <sprintf@plt>
  4019bb:	ba 09 00 00 00       	mov    $0x9,%edx
  4019c0:	4c 89 e6             	mov    %r12,%rsi
  4019c3:	48 89 df             	mov    %rbx,%rdi
  4019c6:	e8 45 f3 ff ff       	callq  400d10 <strncmp@plt>
  4019cb:	85 c0                	test   %eax,%eax
  4019cd:	0f 94 c0             	sete   %al
  4019d0:	0f b6 c0             	movzbl %al,%eax
  4019d3:	48 83 c4 70          	add    $0x70,%rsp
  4019d7:	5b                   	pop    %rbx
  4019d8:	5d                   	pop    %rbp
  4019d9:	41 5c                	pop    %r12
  4019db:	c3                   	retq   

00000000004019dc <touch3>:
  4019dc:	53                   	push   %rbx
  4019dd:	48 89 fb             	mov    %rdi,%rbx
  4019e0:	c7 05 12 2b 20 00 03 	movl   $0x3,0x202b12(%rip)        # 6044fc <vlevel>
  4019e7:	00 00 00 
  4019ea:	48 89 fe             	mov    %rdi,%rsi
  4019ed:	8b 3d 11 2b 20 00    	mov    0x202b11(%rip),%edi        # 604504 <cookie>
  4019f3:	e8 65 ff ff ff       	callq  40195d <hexmatch>
  4019f8:	85 c0                	test   %eax,%eax
  4019fa:	74 26                	je     401a22 <touch3+0x46>
  4019fc:	48 89 de             	mov    %rbx,%rsi
  4019ff:	bf a8 31 40 00       	mov    $0x4031a8,%edi
  401a04:	b8 00 00 00 00       	mov    $0x0,%eax
  401a09:	e8 52 f3 ff ff       	callq  400d60 <printf@plt>
  401a0e:	bf 03 00 00 00       	mov    $0x3,%edi
  401a13:	e8 e1 02 00 00       	callq  401cf9 <validate>
  401a18:	bf 00 00 00 00       	mov    $0x0,%edi
  401a1d:	e8 ae f4 ff ff       	callq  400ed0 <exit@plt>
  401a22:	48 89 de             	mov    %rbx,%rsi
  401a25:	bf d0 31 40 00       	mov    $0x4031d0,%edi
  401a2a:	b8 00 00 00 00       	mov    $0x0,%eax
  401a2f:	e8 2c f3 ff ff       	callq  400d60 <printf@plt>
  401a34:	bf 03 00 00 00       	mov    $0x3,%edi
  401a39:	e8 6d 03 00 00       	callq  401dab <fail>
  401a3e:	eb d8                	jmp    401a18 <touch3+0x3c>

0000000000401a40 <test>:
  401a40:	48 83 ec 08          	sub    $0x8,%rsp
  401a44:	b8 00 00 00 00       	mov    $0x0,%eax
  401a49:	e8 77 fe ff ff       	callq  4018c5 <getbuf>
  401a4e:	89 c6                	mov    %eax,%esi
  401a50:	bf f8 31 40 00       	mov    $0x4031f8,%edi
  401a55:	b8 00 00 00 00       	mov    $0x0,%eax
  401a5a:	e8 01 f3 ff ff       	callq  400d60 <printf@plt>
  401a5f:	48 83 c4 08          	add    $0x8,%rsp
  401a63:	c3                   	retq   

0000000000401a64 <save_char>:
  401a64:	8b 05 ba 36 20 00    	mov    0x2036ba(%rip),%eax        # 605124 <gets_cnt>
  401a6a:	3d ff 03 00 00       	cmp    $0x3ff,%eax
  401a6f:	7f 49                	jg     401aba <save_char+0x56>
  401a71:	89 f9                	mov    %edi,%ecx
  401a73:	c0 e9 04             	shr    $0x4,%cl
  401a76:	8d 14 40             	lea    (%rax,%rax,2),%edx
  401a79:	83 e1 0f             	and    $0xf,%ecx
  401a7c:	0f b6 b1 20 35 40 00 	movzbl 0x403520(%rcx),%esi
  401a83:	48 63 ca             	movslq %edx,%rcx
  401a86:	40 88 b1 20 45 60 00 	mov    %sil,0x604520(%rcx)
  401a8d:	8d 4a 01             	lea    0x1(%rdx),%ecx
  401a90:	83 e7 0f             	and    $0xf,%edi
  401a93:	0f b6 b7 20 35 40 00 	movzbl 0x403520(%rdi),%esi
  401a9a:	48 63 c9             	movslq %ecx,%rcx
  401a9d:	40 88 b1 20 45 60 00 	mov    %sil,0x604520(%rcx)
  401aa4:	83 c2 02             	add    $0x2,%edx
  401aa7:	48 63 d2             	movslq %edx,%rdx
  401aaa:	c6 82 20 45 60 00 20 	movb   $0x20,0x604520(%rdx)
  401ab1:	83 c0 01             	add    $0x1,%eax
  401ab4:	89 05 6a 36 20 00    	mov    %eax,0x20366a(%rip)        # 605124 <gets_cnt>
  401aba:	f3 c3                	repz retq 

0000000000401abc <save_term>:
  401abc:	8b 05 62 36 20 00    	mov    0x203662(%rip),%eax        # 605124 <gets_cnt>
  401ac2:	8d 04 40             	lea    (%rax,%rax,2),%eax
  401ac5:	48 98                	cltq   
  401ac7:	c6 80 20 45 60 00 00 	movb   $0x0,0x604520(%rax)
  401ace:	c3                   	retq   

0000000000401acf <check_fail>:
  401acf:	48 83 ec 08          	sub    $0x8,%rsp
  401ad3:	0f be 35 4e 36 20 00 	movsbl 0x20364e(%rip),%esi        # 605128 <target_prefix>
  401ada:	b9 20 45 60 00       	mov    $0x604520,%ecx
  401adf:	8b 15 13 2a 20 00    	mov    0x202a13(%rip),%edx        # 6044f8 <check_level>
  401ae5:	bf 1b 32 40 00       	mov    $0x40321b,%edi
  401aea:	b8 00 00 00 00       	mov    $0x0,%eax
  401aef:	e8 6c f2 ff ff       	callq  400d60 <printf@plt>
  401af4:	bf 01 00 00 00       	mov    $0x1,%edi
  401af9:	e8 d2 f3 ff ff       	callq  400ed0 <exit@plt>

0000000000401afe <Gets>:
  401afe:	41 54                	push   %r12
  401b00:	55                   	push   %rbp
  401b01:	53                   	push   %rbx
  401b02:	49 89 fc             	mov    %rdi,%r12
  401b05:	c7 05 15 36 20 00 00 	movl   $0x0,0x203615(%rip)        # 605124 <gets_cnt>
  401b0c:	00 00 00 
  401b0f:	48 89 fb             	mov    %rdi,%rbx
  401b12:	eb 11                	jmp    401b25 <Gets+0x27>
  401b14:	48 8d 6b 01          	lea    0x1(%rbx),%rbp
  401b18:	88 03                	mov    %al,(%rbx)
  401b1a:	0f b6 f8             	movzbl %al,%edi
  401b1d:	e8 42 ff ff ff       	callq  401a64 <save_char>
  401b22:	48 89 eb             	mov    %rbp,%rbx
  401b25:	48 8b 3d c4 29 20 00 	mov    0x2029c4(%rip),%rdi        # 6044f0 <infile>
  401b2c:	e8 0f f3 ff ff       	callq  400e40 <_IO_getc@plt>
  401b31:	83 f8 ff             	cmp    $0xffffffffffffffff,%eax
  401b34:	74 05                	je     401b3b <Gets+0x3d>
  401b36:	83 f8 0a             	cmp    $0xa,%eax
  401b39:	75 d9                	jne    401b14 <Gets+0x16>
  401b3b:	c6 03 00             	movb   $0x0,(%rbx)
  401b3e:	b8 00 00 00 00       	mov    $0x0,%eax
  401b43:	e8 74 ff ff ff       	callq  401abc <save_term>
  401b48:	4c 89 e0             	mov    %r12,%rax
  401b4b:	5b                   	pop    %rbx
  401b4c:	5d                   	pop    %rbp
  401b4d:	41 5c                	pop    %r12
  401b4f:	c3                   	retq   

0000000000401b50 <notify_server>:
  401b50:	83 3d b1 29 20 00 00 	cmpl   $0x0,0x2029b1(%rip)        # 604508 <is_checker>
  401b57:	0f 85 9a 01 00 00    	jne    401cf7 <notify_server+0x1a7>
  401b5d:	55                   	push   %rbp
  401b5e:	53                   	push   %rbx
  401b5f:	48 81 ec 08 40 00 00 	sub    $0x4008,%rsp
  401b66:	89 fb                	mov    %edi,%ebx
  401b68:	8b 05 b6 35 20 00    	mov    0x2035b6(%rip),%eax        # 605124 <gets_cnt>
  401b6e:	83 c0 64             	add    $0x64,%eax
  401b71:	3d 00 20 00 00       	cmp    $0x2000,%eax
  401b76:	0f 8f b5 00 00 00    	jg     401c31 <notify_server+0xe1>
  401b7c:	44 0f be 0d a4 35 20 	movsbl 0x2035a4(%rip),%r9d        # 605128 <target_prefix>
  401b83:	00 
  401b84:	83 3d 1d 29 20 00 00 	cmpl   $0x0,0x20291d(%rip)        # 6044a8 <notify>
  401b8b:	0f 84 b9 00 00 00    	je     401c4a <notify_server+0xfa>
  401b91:	44 8b 05 68 29 20 00 	mov    0x202968(%rip),%r8d        # 604500 <authkey>
  401b98:	85 db                	test   %ebx,%ebx
  401b9a:	0f 84 b5 00 00 00    	je     401c55 <notify_server+0x105>
  401ba0:	bd 31 32 40 00       	mov    $0x403231,%ebp
  401ba5:	68 20 45 60 00       	pushq  $0x604520
  401baa:	56                   	push   %rsi
  401bab:	48 89 e9             	mov    %rbp,%rcx
  401bae:	8b 15 b4 25 20 00    	mov    0x2025b4(%rip),%edx        # 604168 <target_id>
  401bb4:	be 3b 32 40 00       	mov    $0x40323b,%esi
  401bb9:	48 8d bc 24 10 20 00 	lea    0x2010(%rsp),%rdi
  401bc0:	00 
  401bc1:	b8 00 00 00 00       	mov    $0x0,%eax
  401bc6:	e8 f5 f2 ff ff       	callq  400ec0 <sprintf@plt>
  401bcb:	48 83 c4 10          	add    $0x10,%rsp
  401bcf:	83 3d d2 28 20 00 00 	cmpl   $0x0,0x2028d2(%rip)        # 6044a8 <notify>
  401bd6:	0f 84 ab 00 00 00    	je     401c87 <notify_server+0x137>
  401bdc:	85 db                	test   %ebx,%ebx
  401bde:	0f 84 97 00 00 00    	je     401c7b <notify_server+0x12b>
  401be4:	49 89 e1             	mov    %rsp,%r9
  401be7:	41 b8 00 00 00 00    	mov    $0x0,%r8d
  401bed:	48 8d 8c 24 00 20 00 	lea    0x2000(%rsp),%rcx
  401bf4:	00 
  401bf5:	48 8b 15 74 25 20 00 	mov    0x202574(%rip),%rdx        # 604170 <lab>
  401bfc:	48 8b 35 75 25 20 00 	mov    0x202575(%rip),%rsi        # 604178 <course>
  401c03:	48 8b 3d 56 25 20 00 	mov    0x202556(%rip),%rdi        # 604160 <user_id>
  401c0a:	e8 fb 0f 00 00       	callq  402c0a <driver_post>
  401c0f:	85 c0                	test   %eax,%eax
  401c11:	78 4c                	js     401c5f <notify_server+0x10f>
  401c13:	bf 80 33 40 00       	mov    $0x403380,%edi
  401c18:	e8 13 f1 ff ff       	callq  400d30 <puts@plt>
  401c1d:	bf 63 32 40 00       	mov    $0x403263,%edi
  401c22:	e8 09 f1 ff ff       	callq  400d30 <puts@plt>
  401c27:	48 81 c4 08 40 00 00 	add    $0x4008,%rsp
  401c2e:	5b                   	pop    %rbx
  401c2f:	5d                   	pop    %rbp
  401c30:	c3                   	retq   
  401c31:	bf 50 33 40 00       	mov    $0x403350,%edi
  401c36:	b8 00 00 00 00       	mov    $0x0,%eax
  401c3b:	e8 20 f1 ff ff       	callq  400d60 <printf@plt>
  401c40:	bf 01 00 00 00       	mov    $0x1,%edi
  401c45:	e8 86 f2 ff ff       	callq  400ed0 <exit@plt>
  401c4a:	41 b8 ff ff ff ff    	mov    $0xffffffff,%r8d
  401c50:	e9 43 ff ff ff       	jmpq   401b98 <notify_server+0x48>
  401c55:	bd 36 32 40 00       	mov    $0x403236,%ebp
  401c5a:	e9 46 ff ff ff       	jmpq   401ba5 <notify_server+0x55>
  401c5f:	48 89 e6             	mov    %rsp,%rsi
  401c62:	bf 57 32 40 00       	mov    $0x403257,%edi
  401c67:	b8 00 00 00 00       	mov    $0x0,%eax
  401c6c:	e8 ef f0 ff ff       	callq  400d60 <printf@plt>
  401c71:	bf 01 00 00 00       	mov    $0x1,%edi
  401c76:	e8 55 f2 ff ff       	callq  400ed0 <exit@plt>
  401c7b:	bf 6d 32 40 00       	mov    $0x40326d,%edi
  401c80:	e8 ab f0 ff ff       	callq  400d30 <puts@plt>
  401c85:	eb a0                	jmp    401c27 <notify_server+0xd7>
  401c87:	48 89 ee             	mov    %rbp,%rsi
  401c8a:	bf b8 33 40 00       	mov    $0x4033b8,%edi
  401c8f:	b8 00 00 00 00       	mov    $0x0,%eax
  401c94:	e8 c7 f0 ff ff       	callq  400d60 <printf@plt>
  401c99:	48 8b 35 c0 24 20 00 	mov    0x2024c0(%rip),%rsi        # 604160 <user_id>
  401ca0:	bf 74 32 40 00       	mov    $0x403274,%edi
  401ca5:	b8 00 00 00 00       	mov    $0x0,%eax
  401caa:	e8 b1 f0 ff ff       	callq  400d60 <printf@plt>
  401caf:	48 8b 35 c2 24 20 00 	mov    0x2024c2(%rip),%rsi        # 604178 <course>
  401cb6:	bf 81 32 40 00       	mov    $0x403281,%edi
  401cbb:	b8 00 00 00 00       	mov    $0x0,%eax
  401cc0:	e8 9b f0 ff ff       	callq  400d60 <printf@plt>
  401cc5:	48 8b 35 a4 24 20 00 	mov    0x2024a4(%rip),%rsi        # 604170 <lab>
  401ccc:	bf 8d 32 40 00       	mov    $0x40328d,%edi
  401cd1:	b8 00 00 00 00       	mov    $0x0,%eax
  401cd6:	e8 85 f0 ff ff       	callq  400d60 <printf@plt>
  401cdb:	48 8d b4 24 00 20 00 	lea    0x2000(%rsp),%rsi
  401ce2:	00 
  401ce3:	bf 96 32 40 00       	mov    $0x403296,%edi
  401ce8:	b8 00 00 00 00       	mov    $0x0,%eax
  401ced:	e8 6e f0 ff ff       	callq  400d60 <printf@plt>
  401cf2:	e9 30 ff ff ff       	jmpq   401c27 <notify_server+0xd7>
  401cf7:	f3 c3                	repz retq 

0000000000401cf9 <validate>:
  401cf9:	53                   	push   %rbx
  401cfa:	89 fb                	mov    %edi,%ebx
  401cfc:	83 3d 05 28 20 00 00 	cmpl   $0x0,0x202805(%rip)        # 604508 <is_checker>
  401d03:	74 60                	je     401d65 <validate+0x6c>
  401d05:	39 3d f1 27 20 00    	cmp    %edi,0x2027f1(%rip)        # 6044fc <vlevel>
  401d0b:	75 29                	jne    401d36 <validate+0x3d>
  401d0d:	8b 35 e5 27 20 00    	mov    0x2027e5(%rip),%esi        # 6044f8 <check_level>
  401d13:	39 fe                	cmp    %edi,%esi
  401d15:	75 33                	jne    401d4a <validate+0x51>
  401d17:	0f be 35 0a 34 20 00 	movsbl 0x20340a(%rip),%esi        # 605128 <target_prefix>
  401d1e:	b9 20 45 60 00       	mov    $0x604520,%ecx
  401d23:	89 fa                	mov    %edi,%edx
  401d25:	bf c0 32 40 00       	mov    $0x4032c0,%edi
  401d2a:	b8 00 00 00 00       	mov    $0x0,%eax
  401d2f:	e8 2c f0 ff ff       	callq  400d60 <printf@plt>
  401d34:	5b                   	pop    %rbx
  401d35:	c3                   	retq   
  401d36:	bf a2 32 40 00       	mov    $0x4032a2,%edi
  401d3b:	e8 f0 ef ff ff       	callq  400d30 <puts@plt>
  401d40:	b8 00 00 00 00       	mov    $0x0,%eax
  401d45:	e8 85 fd ff ff       	callq  401acf <check_fail>
  401d4a:	89 fa                	mov    %edi,%edx
  401d4c:	bf e0 33 40 00       	mov    $0x4033e0,%edi
  401d51:	b8 00 00 00 00       	mov    $0x0,%eax
  401d56:	e8 05 f0 ff ff       	callq  400d60 <printf@plt>
  401d5b:	b8 00 00 00 00       	mov    $0x0,%eax
  401d60:	e8 6a fd ff ff       	callq  401acf <check_fail>
  401d65:	39 3d 91 27 20 00    	cmp    %edi,0x202791(%rip)        # 6044fc <vlevel>
  401d6b:	74 18                	je     401d85 <validate+0x8c>
  401d6d:	bf a2 32 40 00       	mov    $0x4032a2,%edi
  401d72:	e8 b9 ef ff ff       	callq  400d30 <puts@plt>
  401d77:	89 de                	mov    %ebx,%esi
  401d79:	bf 00 00 00 00       	mov    $0x0,%edi
  401d7e:	e8 cd fd ff ff       	callq  401b50 <notify_server>
  401d83:	eb af                	jmp    401d34 <validate+0x3b>
  401d85:	0f be 15 9c 33 20 00 	movsbl 0x20339c(%rip),%edx        # 605128 <target_prefix>
  401d8c:	89 fe                	mov    %edi,%esi
  401d8e:	bf 08 34 40 00       	mov    $0x403408,%edi
  401d93:	b8 00 00 00 00       	mov    $0x0,%eax
  401d98:	e8 c3 ef ff ff       	callq  400d60 <printf@plt>
  401d9d:	89 de                	mov    %ebx,%esi
  401d9f:	bf 01 00 00 00       	mov    $0x1,%edi
  401da4:	e8 a7 fd ff ff       	callq  401b50 <notify_server>
  401da9:	eb 89                	jmp    401d34 <validate+0x3b>

0000000000401dab <fail>:
  401dab:	48 83 ec 08          	sub    $0x8,%rsp
  401daf:	83 3d 52 27 20 00 00 	cmpl   $0x0,0x202752(%rip)        # 604508 <is_checker>
  401db6:	75 11                	jne    401dc9 <fail+0x1e>
  401db8:	89 fe                	mov    %edi,%esi
  401dba:	bf 00 00 00 00       	mov    $0x0,%edi
  401dbf:	e8 8c fd ff ff       	callq  401b50 <notify_server>
  401dc4:	48 83 c4 08          	add    $0x8,%rsp
  401dc8:	c3                   	retq   
  401dc9:	b8 00 00 00 00       	mov    $0x0,%eax
  401dce:	e8 fc fc ff ff       	callq  401acf <check_fail>

0000000000401dd3 <bushandler>:
  401dd3:	48 83 ec 08          	sub    $0x8,%rsp
  401dd7:	83 3d 2a 27 20 00 00 	cmpl   $0x0,0x20272a(%rip)        # 604508 <is_checker>
  401dde:	74 14                	je     401df4 <bushandler+0x21>
  401de0:	bf d5 32 40 00       	mov    $0x4032d5,%edi
  401de5:	e8 46 ef ff ff       	callq  400d30 <puts@plt>
  401dea:	b8 00 00 00 00       	mov    $0x0,%eax
  401def:	e8 db fc ff ff       	callq  401acf <check_fail>
  401df4:	bf 40 34 40 00       	mov    $0x403440,%edi
  401df9:	e8 32 ef ff ff       	callq  400d30 <puts@plt>
  401dfe:	bf df 32 40 00       	mov    $0x4032df,%edi
  401e03:	e8 28 ef ff ff       	callq  400d30 <puts@plt>
  401e08:	be 00 00 00 00       	mov    $0x0,%esi
  401e0d:	bf 00 00 00 00       	mov    $0x0,%edi
  401e12:	e8 39 fd ff ff       	callq  401b50 <notify_server>
  401e17:	bf 01 00 00 00       	mov    $0x1,%edi
  401e1c:	e8 af f0 ff ff       	callq  400ed0 <exit@plt>

0000000000401e21 <seghandler>:
  401e21:	48 83 ec 08          	sub    $0x8,%rsp
  401e25:	83 3d dc 26 20 00 00 	cmpl   $0x0,0x2026dc(%rip)        # 604508 <is_checker>
  401e2c:	74 14                	je     401e42 <seghandler+0x21>
  401e2e:	bf f5 32 40 00       	mov    $0x4032f5,%edi
  401e33:	e8 f8 ee ff ff       	callq  400d30 <puts@plt>
  401e38:	b8 00 00 00 00       	mov    $0x0,%eax
  401e3d:	e8 8d fc ff ff       	callq  401acf <check_fail>
  401e42:	bf 60 34 40 00       	mov    $0x403460,%edi
  401e47:	e8 e4 ee ff ff       	callq  400d30 <puts@plt>
  401e4c:	bf df 32 40 00       	mov    $0x4032df,%edi
  401e51:	e8 da ee ff ff       	callq  400d30 <puts@plt>
  401e56:	be 00 00 00 00       	mov    $0x0,%esi
  401e5b:	bf 00 00 00 00       	mov    $0x0,%edi
  401e60:	e8 eb fc ff ff       	callq  401b50 <notify_server>
  401e65:	bf 01 00 00 00       	mov    $0x1,%edi
  401e6a:	e8 61 f0 ff ff       	callq  400ed0 <exit@plt>

0000000000401e6f <illegalhandler>:
  401e6f:	48 83 ec 08          	sub    $0x8,%rsp
  401e73:	83 3d 8e 26 20 00 00 	cmpl   $0x0,0x20268e(%rip)        # 604508 <is_checker>
  401e7a:	74 14                	je     401e90 <illegalhandler+0x21>
  401e7c:	bf 08 33 40 00       	mov    $0x403308,%edi
  401e81:	e8 aa ee ff ff       	callq  400d30 <puts@plt>
  401e86:	b8 00 00 00 00       	mov    $0x0,%eax
  401e8b:	e8 3f fc ff ff       	callq  401acf <check_fail>
  401e90:	bf 88 34 40 00       	mov    $0x403488,%edi
  401e95:	e8 96 ee ff ff       	callq  400d30 <puts@plt>
  401e9a:	bf df 32 40 00       	mov    $0x4032df,%edi
  401e9f:	e8 8c ee ff ff       	callq  400d30 <puts@plt>
  401ea4:	be 00 00 00 00       	mov    $0x0,%esi
  401ea9:	bf 00 00 00 00       	mov    $0x0,%edi
  401eae:	e8 9d fc ff ff       	callq  401b50 <notify_server>
  401eb3:	bf 01 00 00 00       	mov    $0x1,%edi
  401eb8:	e8 13 f0 ff ff       	callq  400ed0 <exit@plt>

0000000000401ebd <sigalrmhandler>:
  401ebd:	48 83 ec 08          	sub    $0x8,%rsp
  401ec1:	83 3d 40 26 20 00 00 	cmpl   $0x0,0x202640(%rip)        # 604508 <is_checker>
  401ec8:	74 14                	je     401ede <sigalrmhandler+0x21>
  401eca:	bf 1c 33 40 00       	mov    $0x40331c,%edi
  401ecf:	e8 5c ee ff ff       	callq  400d30 <puts@plt>
  401ed4:	b8 00 00 00 00       	mov    $0x0,%eax
  401ed9:	e8 f1 fb ff ff       	callq  401acf <check_fail>
  401ede:	be 05 00 00 00       	mov    $0x5,%esi
  401ee3:	bf b8 34 40 00       	mov    $0x4034b8,%edi
  401ee8:	b8 00 00 00 00       	mov    $0x0,%eax
  401eed:	e8 6e ee ff ff       	callq  400d60 <printf@plt>
  401ef2:	be 00 00 00 00       	mov    $0x0,%esi
  401ef7:	bf 00 00 00 00       	mov    $0x0,%edi
  401efc:	e8 4f fc ff ff       	callq  401b50 <notify_server>
  401f01:	bf 01 00 00 00       	mov    $0x1,%edi
  401f06:	e8 c5 ef ff ff       	callq  400ed0 <exit@plt>

0000000000401f0b <launch>:
  401f0b:	55                   	push   %rbp
  401f0c:	48 89 e5             	mov    %rsp,%rbp
  401f0f:	48 89 fa             	mov    %rdi,%rdx
  401f12:	48 8d 47 1e          	lea    0x1e(%rdi),%rax
  401f16:	48 83 e0 f0          	and    $0xfffffffffffffff0,%rax
  401f1a:	48 29 c4             	sub    %rax,%rsp
  401f1d:	48 8d 7c 24 0f       	lea    0xf(%rsp),%rdi
  401f22:	48 83 e7 f0          	and    $0xfffffffffffffff0,%rdi
  401f26:	be f4 00 00 00       	mov    $0xf4,%esi
  401f2b:	e8 40 ee ff ff       	callq  400d70 <memset@plt>
  401f30:	48 8b 05 89 25 20 00 	mov    0x202589(%rip),%rax        # 6044c0 <stdin@@GLIBC_2.2.5>
  401f37:	48 39 05 b2 25 20 00 	cmp    %rax,0x2025b2(%rip)        # 6044f0 <infile>
  401f3e:	74 29                	je     401f69 <launch+0x5e>
  401f40:	c7 05 b2 25 20 00 00 	movl   $0x0,0x2025b2(%rip)        # 6044fc <vlevel>
  401f47:	00 00 00 
  401f4a:	b8 00 00 00 00       	mov    $0x0,%eax
  401f4f:	e8 ec fa ff ff       	callq  401a40 <test>
  401f54:	83 3d ad 25 20 00 00 	cmpl   $0x0,0x2025ad(%rip)        # 604508 <is_checker>
  401f5b:	75 1d                	jne    401f7a <launch+0x6f>
  401f5d:	bf 3c 33 40 00       	mov    $0x40333c,%edi
  401f62:	e8 c9 ed ff ff       	callq  400d30 <puts@plt>
  401f67:	c9                   	leaveq 
  401f68:	c3                   	retq   
  401f69:	bf 24 33 40 00       	mov    $0x403324,%edi
  401f6e:	b8 00 00 00 00       	mov    $0x0,%eax
  401f73:	e8 e8 ed ff ff       	callq  400d60 <printf@plt>
  401f78:	eb c6                	jmp    401f40 <launch+0x35>
  401f7a:	bf 31 33 40 00       	mov    $0x403331,%edi
  401f7f:	e8 ac ed ff ff       	callq  400d30 <puts@plt>
  401f84:	b8 00 00 00 00       	mov    $0x0,%eax
  401f89:	e8 41 fb ff ff       	callq  401acf <check_fail>

0000000000401f8e <stable_launch>:
  401f8e:	53                   	push   %rbx
  401f8f:	48 89 3d 52 25 20 00 	mov    %rdi,0x202552(%rip)        # 6044e8 <global_offset>
  401f96:	41 b9 00 00 00 00    	mov    $0x0,%r9d
  401f9c:	41 b8 00 00 00 00    	mov    $0x0,%r8d
  401fa2:	b9 32 01 00 00       	mov    $0x132,%ecx
  401fa7:	ba 07 00 00 00       	mov    $0x7,%edx
  401fac:	be 00 00 10 00       	mov    $0x100000,%esi
  401fb1:	bf 00 60 58 55       	mov    $0x55586000,%edi
  401fb6:	e8 95 ed ff ff       	callq  400d50 <mmap@plt>
  401fbb:	48 89 c3             	mov    %rax,%rbx
  401fbe:	48 3d 00 60 58 55    	cmp    $0x55586000,%rax
  401fc4:	75 43                	jne    402009 <stable_launch+0x7b>
  401fc6:	48 8d 90 f8 ff 0f 00 	lea    0xffff8(%rax),%rdx
  401fcd:	48 89 15 5c 31 20 00 	mov    %rdx,0x20315c(%rip)        # 605130 <stack_top>
  401fd4:	48 89 e0             	mov    %rsp,%rax
  401fd7:	48 89 d4             	mov    %rdx,%rsp
  401fda:	48 89 c2             	mov    %rax,%rdx
  401fdd:	48 89 15 fc 24 20 00 	mov    %rdx,0x2024fc(%rip)        # 6044e0 <global_save_stack>
  401fe4:	48 8b 3d fd 24 20 00 	mov    0x2024fd(%rip),%rdi        # 6044e8 <global_offset>
  401feb:	e8 1b ff ff ff       	callq  401f0b <launch>
  401ff0:	48 8b 05 e9 24 20 00 	mov    0x2024e9(%rip),%rax        # 6044e0 <global_save_stack>
  401ff7:	48 89 c4             	mov    %rax,%rsp
  401ffa:	be 00 00 10 00       	mov    $0x100000,%esi
  401fff:	48 89 df             	mov    %rbx,%rdi
  402002:	e8 59 ee ff ff       	callq  400e60 <munmap@plt>
  402007:	5b                   	pop    %rbx
  402008:	c3                   	retq   
  402009:	be 00 00 10 00       	mov    $0x100000,%esi
  40200e:	48 89 c7             	mov    %rax,%rdi
  402011:	e8 4a ee ff ff       	callq  400e60 <munmap@plt>
  402016:	ba 00 60 58 55       	mov    $0x55586000,%edx
  40201b:	be f0 34 40 00       	mov    $0x4034f0,%esi
  402020:	48 8b 3d a9 24 20 00 	mov    0x2024a9(%rip),%rdi        # 6044d0 <stderr@@GLIBC_2.2.5>
  402027:	b8 00 00 00 00       	mov    $0x0,%eax
  40202c:	e8 af ed ff ff       	callq  400de0 <fprintf@plt>
  402031:	bf 01 00 00 00       	mov    $0x1,%edi
  402036:	e8 95 ee ff ff       	callq  400ed0 <exit@plt>

000000000040203b <rio_readinitb>:
  40203b:	89 37                	mov    %esi,(%rdi)
  40203d:	c7 47 04 00 00 00 00 	movl   $0x0,0x4(%rdi)
  402044:	48 8d 47 10          	lea    0x10(%rdi),%rax
  402048:	48 89 47 08          	mov    %rax,0x8(%rdi)
  40204c:	c3                   	retq   

000000000040204d <sigalrm_handler>:
  40204d:	48 83 ec 08          	sub    $0x8,%rsp
  402051:	ba 00 00 00 00       	mov    $0x0,%edx
  402056:	be 30 35 40 00       	mov    $0x403530,%esi
  40205b:	48 8b 3d 6e 24 20 00 	mov    0x20246e(%rip),%rdi        # 6044d0 <stderr@@GLIBC_2.2.5>
  402062:	b8 00 00 00 00       	mov    $0x0,%eax
  402067:	e8 74 ed ff ff       	callq  400de0 <fprintf@plt>
  40206c:	bf 01 00 00 00       	mov    $0x1,%edi
  402071:	e8 5a ee ff ff       	callq  400ed0 <exit@plt>

0000000000402076 <urlencode>:
  402076:	41 54                	push   %r12
  402078:	55                   	push   %rbp
  402079:	53                   	push   %rbx
  40207a:	48 83 ec 10          	sub    $0x10,%rsp
  40207e:	48 89 fb             	mov    %rdi,%rbx
  402081:	48 89 f5             	mov    %rsi,%rbp
  402084:	48 c7 c1 ff ff ff ff 	mov    $0xffffffffffffffff,%rcx
  40208b:	b8 00 00 00 00       	mov    $0x0,%eax
  402090:	f2 ae                	repnz scas %es:(%rdi),%al
  402092:	48 89 ce             	mov    %rcx,%rsi
  402095:	48 f7 d6             	not    %rsi
  402098:	8d 46 ff             	lea    -0x1(%rsi),%eax
  40209b:	eb 0e                	jmp    4020ab <urlencode+0x35>
  40209d:	88 45 00             	mov    %al,0x0(%rbp)
  4020a0:	48 8d 6d 01          	lea    0x1(%rbp),%rbp
  4020a4:	48 83 c3 01          	add    $0x1,%rbx
  4020a8:	44 89 e0             	mov    %r12d,%eax
  4020ab:	44 8d 60 ff          	lea    -0x1(%rax),%r12d
  4020af:	85 c0                	test   %eax,%eax
  4020b1:	0f 84 91 00 00 00    	je     402148 <urlencode+0xd2>
  4020b7:	0f b6 03             	movzbl (%rbx),%eax
  4020ba:	3c 2a                	cmp    $0x2a,%al
  4020bc:	0f 94 c1             	sete   %cl
  4020bf:	3c 2d                	cmp    $0x2d,%al
  4020c1:	0f 94 c2             	sete   %dl
  4020c4:	08 d1                	or     %dl,%cl
  4020c6:	75 d5                	jne    40209d <urlencode+0x27>
  4020c8:	3c 2e                	cmp    $0x2e,%al
  4020ca:	74 d1                	je     40209d <urlencode+0x27>
  4020cc:	3c 5f                	cmp    $0x5f,%al
  4020ce:	74 cd                	je     40209d <urlencode+0x27>
  4020d0:	8d 50 d0             	lea    -0x30(%rax),%edx
  4020d3:	80 fa 09             	cmp    $0x9,%dl
  4020d6:	76 c5                	jbe    40209d <urlencode+0x27>
  4020d8:	8d 50 bf             	lea    -0x41(%rax),%edx
  4020db:	80 fa 19             	cmp    $0x19,%dl
  4020de:	76 bd                	jbe    40209d <urlencode+0x27>
  4020e0:	8d 50 9f             	lea    -0x61(%rax),%edx
  4020e3:	80 fa 19             	cmp    $0x19,%dl
  4020e6:	76 b5                	jbe    40209d <urlencode+0x27>
  4020e8:	3c 20                	cmp    $0x20,%al
  4020ea:	74 4a                	je     402136 <urlencode+0xc0>
  4020ec:	8d 50 e0             	lea    -0x20(%rax),%edx
  4020ef:	80 fa 5f             	cmp    $0x5f,%dl
  4020f2:	0f 96 c1             	setbe  %cl
  4020f5:	3c 09                	cmp    $0x9,%al
  4020f7:	0f 94 c2             	sete   %dl
  4020fa:	08 d1                	or     %dl,%cl
  4020fc:	74 45                	je     402143 <urlencode+0xcd>
  4020fe:	0f b6 d0             	movzbl %al,%edx
  402101:	be c8 35 40 00       	mov    $0x4035c8,%esi
  402106:	48 8d 7c 24 08       	lea    0x8(%rsp),%rdi
  40210b:	b8 00 00 00 00       	mov    $0x0,%eax
  402110:	e8 ab ed ff ff       	callq  400ec0 <sprintf@plt>
  402115:	0f b6 44 24 08       	movzbl 0x8(%rsp),%eax
  40211a:	88 45 00             	mov    %al,0x0(%rbp)
  40211d:	0f b6 44 24 09       	movzbl 0x9(%rsp),%eax
  402122:	88 45 01             	mov    %al,0x1(%rbp)
  402125:	0f b6 44 24 0a       	movzbl 0xa(%rsp),%eax
  40212a:	88 45 02             	mov    %al,0x2(%rbp)
  40212d:	48 8d 6d 03          	lea    0x3(%rbp),%rbp
  402131:	e9 6e ff ff ff       	jmpq   4020a4 <urlencode+0x2e>
  402136:	c6 45 00 2b          	movb   $0x2b,0x0(%rbp)
  40213a:	48 8d 6d 01          	lea    0x1(%rbp),%rbp
  40213e:	e9 61 ff ff ff       	jmpq   4020a4 <urlencode+0x2e>
  402143:	b8 ff ff ff ff       	mov    $0xffffffff,%eax
  402148:	48 83 c4 10          	add    $0x10,%rsp
  40214c:	5b                   	pop    %rbx
  40214d:	5d                   	pop    %rbp
  40214e:	41 5c                	pop    %r12
  402150:	c3                   	retq   

0000000000402151 <rio_writen>:
  402151:	41 55                	push   %r13
  402153:	41 54                	push   %r12
  402155:	55                   	push   %rbp
  402156:	53                   	push   %rbx
  402157:	48 83 ec 08          	sub    $0x8,%rsp
  40215b:	41 89 fc             	mov    %edi,%r12d
  40215e:	48 89 f5             	mov    %rsi,%rbp
  402161:	49 89 d5             	mov    %rdx,%r13
  402164:	48 89 d3             	mov    %rdx,%rbx
  402167:	eb 06                	jmp    40216f <rio_writen+0x1e>
  402169:	48 29 c3             	sub    %rax,%rbx
  40216c:	48 01 c5             	add    %rax,%rbp
  40216f:	48 85 db             	test   %rbx,%rbx
  402172:	74 24                	je     402198 <rio_writen+0x47>
  402174:	48 89 da             	mov    %rbx,%rdx
  402177:	48 89 ee             	mov    %rbp,%rsi
  40217a:	44 89 e7             	mov    %r12d,%edi
  40217d:	e8 be eb ff ff       	callq  400d40 <write@plt>
  402182:	48 85 c0             	test   %rax,%rax
  402185:	7f e2                	jg     402169 <rio_writen+0x18>
  402187:	e8 64 eb ff ff       	callq  400cf0 <__errno_location@plt>
  40218c:	83 38 04             	cmpl   $0x4,(%rax)
  40218f:	75 15                	jne    4021a6 <rio_writen+0x55>
  402191:	b8 00 00 00 00       	mov    $0x0,%eax
  402196:	eb d1                	jmp    402169 <rio_writen+0x18>
  402198:	4c 89 e8             	mov    %r13,%rax
  40219b:	48 83 c4 08          	add    $0x8,%rsp
  40219f:	5b                   	pop    %rbx
  4021a0:	5d                   	pop    %rbp
  4021a1:	41 5c                	pop    %r12
  4021a3:	41 5d                	pop    %r13
  4021a5:	c3                   	retq   
  4021a6:	48 c7 c0 ff ff ff ff 	mov    $0xffffffffffffffff,%rax
  4021ad:	eb ec                	jmp    40219b <rio_writen+0x4a>

00000000004021af <rio_read>:
  4021af:	41 55                	push   %r13
  4021b1:	41 54                	push   %r12
  4021b3:	55                   	push   %rbp
  4021b4:	53                   	push   %rbx
  4021b5:	48 83 ec 08          	sub    $0x8,%rsp
  4021b9:	48 89 fb             	mov    %rdi,%rbx
  4021bc:	49 89 f5             	mov    %rsi,%r13
  4021bf:	49 89 d4             	mov    %rdx,%r12
  4021c2:	eb 0a                	jmp    4021ce <rio_read+0x1f>
  4021c4:	e8 27 eb ff ff       	callq  400cf0 <__errno_location@plt>
  4021c9:	83 38 04             	cmpl   $0x4,(%rax)
  4021cc:	75 5c                	jne    40222a <rio_read+0x7b>
  4021ce:	8b 6b 04             	mov    0x4(%rbx),%ebp
  4021d1:	85 ed                	test   %ebp,%ebp
  4021d3:	7f 24                	jg     4021f9 <rio_read+0x4a>
  4021d5:	48 8d 6b 10          	lea    0x10(%rbx),%rbp
  4021d9:	ba 00 20 00 00       	mov    $0x2000,%edx
  4021de:	48 89 ee             	mov    %rbp,%rsi
  4021e1:	8b 3b                	mov    (%rbx),%edi
  4021e3:	e8 b8 eb ff ff       	callq  400da0 <read@plt>
  4021e8:	89 43 04             	mov    %eax,0x4(%rbx)
  4021eb:	85 c0                	test   %eax,%eax
  4021ed:	78 d5                	js     4021c4 <rio_read+0x15>
  4021ef:	85 c0                	test   %eax,%eax
  4021f1:	74 40                	je     402233 <rio_read+0x84>
  4021f3:	48 89 6b 08          	mov    %rbp,0x8(%rbx)
  4021f7:	eb d5                	jmp    4021ce <rio_read+0x1f>
  4021f9:	89 e8                	mov    %ebp,%eax
  4021fb:	4c 39 e0             	cmp    %r12,%rax
  4021fe:	72 03                	jb     402203 <rio_read+0x54>
  402200:	44 89 e5             	mov    %r12d,%ebp
  402203:	4c 63 e5             	movslq %ebp,%r12
  402206:	48 8b 73 08          	mov    0x8(%rbx),%rsi
  40220a:	4c 89 e2             	mov    %r12,%rdx
  40220d:	4c 89 ef             	mov    %r13,%rdi
  402210:	e8 fb eb ff ff       	callq  400e10 <memcpy@plt>
  402215:	4c 01 63 08          	add    %r12,0x8(%rbx)
  402219:	29 6b 04             	sub    %ebp,0x4(%rbx)
  40221c:	4c 89 e0             	mov    %r12,%rax
  40221f:	48 83 c4 08          	add    $0x8,%rsp
  402223:	5b                   	pop    %rbx
  402224:	5d                   	pop    %rbp
  402225:	41 5c                	pop    %r12
  402227:	41 5d                	pop    %r13
  402229:	c3                   	retq   
  40222a:	48 c7 c0 ff ff ff ff 	mov    $0xffffffffffffffff,%rax
  402231:	eb ec                	jmp    40221f <rio_read+0x70>
  402233:	b8 00 00 00 00       	mov    $0x0,%eax
  402238:	eb e5                	jmp    40221f <rio_read+0x70>

000000000040223a <rio_readlineb>:
  40223a:	41 55                	push   %r13
  40223c:	41 54                	push   %r12
  40223e:	55                   	push   %rbp
  40223f:	53                   	push   %rbx
  402240:	48 83 ec 18          	sub    $0x18,%rsp
  402244:	49 89 fd             	mov    %rdi,%r13
  402247:	48 89 f5             	mov    %rsi,%rbp
  40224a:	49 89 d4             	mov    %rdx,%r12
  40224d:	bb 01 00 00 00       	mov    $0x1,%ebx
  402252:	4c 39 e3             	cmp    %r12,%rbx
  402255:	73 47                	jae    40229e <rio_readlineb+0x64>
  402257:	ba 01 00 00 00       	mov    $0x1,%edx
  40225c:	48 8d 74 24 0f       	lea    0xf(%rsp),%rsi
  402261:	4c 89 ef             	mov    %r13,%rdi
  402264:	e8 46 ff ff ff       	callq  4021af <rio_read>
  402269:	83 f8 01             	cmp    $0x1,%eax
  40226c:	75 1c                	jne    40228a <rio_readlineb+0x50>
  40226e:	48 8d 45 01          	lea    0x1(%rbp),%rax
  402272:	0f b6 54 24 0f       	movzbl 0xf(%rsp),%edx
  402277:	88 55 00             	mov    %dl,0x0(%rbp)
  40227a:	80 7c 24 0f 0a       	cmpb   $0xa,0xf(%rsp)
  40227f:	74 1a                	je     40229b <rio_readlineb+0x61>
  402281:	48 83 c3 01          	add    $0x1,%rbx
  402285:	48 89 c5             	mov    %rax,%rbp
  402288:	eb c8                	jmp    402252 <rio_readlineb+0x18>
  40228a:	85 c0                	test   %eax,%eax
  40228c:	75 22                	jne    4022b0 <rio_readlineb+0x76>
  40228e:	48 83 fb 01          	cmp    $0x1,%rbx
  402292:	75 0a                	jne    40229e <rio_readlineb+0x64>
  402294:	b8 00 00 00 00       	mov    $0x0,%eax
  402299:	eb 0a                	jmp    4022a5 <rio_readlineb+0x6b>
  40229b:	48 89 c5             	mov    %rax,%rbp
  40229e:	c6 45 00 00          	movb   $0x0,0x0(%rbp)
  4022a2:	48 89 d8             	mov    %rbx,%rax
  4022a5:	48 83 c4 18          	add    $0x18,%rsp
  4022a9:	5b                   	pop    %rbx
  4022aa:	5d                   	pop    %rbp
  4022ab:	41 5c                	pop    %r12
  4022ad:	41 5d                	pop    %r13
  4022af:	c3                   	retq   
  4022b0:	48 c7 c0 ff ff ff ff 	mov    $0xffffffffffffffff,%rax
  4022b7:	eb ec                	jmp    4022a5 <rio_readlineb+0x6b>

00000000004022b9 <submitr>:
  4022b9:	41 57                	push   %r15
  4022bb:	41 56                	push   %r14
  4022bd:	41 55                	push   %r13
  4022bf:	41 54                	push   %r12
  4022c1:	55                   	push   %rbp
  4022c2:	53                   	push   %rbx
  4022c3:	48 81 ec 48 a0 00 00 	sub    $0xa048,%rsp
  4022ca:	49 89 fc             	mov    %rdi,%r12
  4022cd:	89 74 24 04          	mov    %esi,0x4(%rsp)
  4022d1:	49 89 d7             	mov    %rdx,%r15
  4022d4:	49 89 ce             	mov    %rcx,%r14
  4022d7:	4c 89 44 24 08       	mov    %r8,0x8(%rsp)
  4022dc:	4d 89 cd             	mov    %r9,%r13
  4022df:	48 8b ac 24 80 a0 00 	mov    0xa080(%rsp),%rbp
  4022e6:	00 
  4022e7:	c7 84 24 1c 20 00 00 	movl   $0x0,0x201c(%rsp)
  4022ee:	00 00 00 00 
  4022f2:	ba 00 00 00 00       	mov    $0x0,%edx
  4022f7:	be 01 00 00 00       	mov    $0x1,%esi
  4022fc:	bf 02 00 00 00       	mov    $0x2,%edi
  402301:	e8 ea eb ff ff       	callq  400ef0 <socket@plt>
  402306:	85 c0                	test   %eax,%eax
  402308:	0f 88 c4 01 00 00    	js     4024d2 <submitr+0x219>
  40230e:	89 c3                	mov    %eax,%ebx
  402310:	4c 89 e7             	mov    %r12,%rdi
  402313:	e8 b8 ea ff ff       	callq  400dd0 <gethostbyname@plt>
  402318:	48 85 c0             	test   %rax,%rax
  40231b:	0f 84 00 02 00 00    	je     402521 <submitr+0x268>
  402321:	48 c7 84 24 30 a0 00 	movq   $0x0,0xa030(%rsp)
  402328:	00 00 00 00 00 
  40232d:	48 c7 84 24 38 a0 00 	movq   $0x0,0xa038(%rsp)
  402334:	00 00 00 00 00 
  402339:	66 c7 84 24 30 a0 00 	movw   $0x2,0xa030(%rsp)
  402340:	00 02 00 
  402343:	48 8b 48 18          	mov    0x18(%rax),%rcx
  402347:	48 63 50 14          	movslq 0x14(%rax),%rdx
  40234b:	48 8d b4 24 34 a0 00 	lea    0xa034(%rsp),%rsi
  402352:	00 
  402353:	48 8b 39             	mov    (%rcx),%rdi
  402356:	e8 15 eb ff ff       	callq  400e70 <bcopy@plt>
  40235b:	0f b7 44 24 04       	movzwl 0x4(%rsp),%eax
  402360:	66 c1 c8 08          	ror    $0x8,%ax
  402364:	66 89 84 24 32 a0 00 	mov    %ax,0xa032(%rsp)
  40236b:	00 
  40236c:	ba 10 00 00 00       	mov    $0x10,%edx
  402371:	48 8d b4 24 30 a0 00 	lea    0xa030(%rsp),%rsi
  402378:	00 
  402379:	89 df                	mov    %ebx,%edi
  40237b:	e8 60 eb ff ff       	callq  400ee0 <connect@plt>
  402380:	85 c0                	test   %eax,%eax
  402382:	0f 88 01 02 00 00    	js     402589 <submitr+0x2d0>
  402388:	48 c7 c6 ff ff ff ff 	mov    $0xffffffffffffffff,%rsi
  40238f:	b8 00 00 00 00       	mov    $0x0,%eax
  402394:	48 89 f1             	mov    %rsi,%rcx
  402397:	4c 89 ef             	mov    %r13,%rdi
  40239a:	f2 ae                	repnz scas %es:(%rdi),%al
  40239c:	48 89 ca             	mov    %rcx,%rdx
  40239f:	48 f7 d2             	not    %rdx
  4023a2:	48 89 f1             	mov    %rsi,%rcx
  4023a5:	4c 89 ff             	mov    %r15,%rdi
  4023a8:	f2 ae                	repnz scas %es:(%rdi),%al
  4023aa:	48 f7 d1             	not    %rcx
  4023ad:	49 89 c8             	mov    %rcx,%r8
  4023b0:	48 89 f1             	mov    %rsi,%rcx
  4023b3:	4c 89 f7             	mov    %r14,%rdi
  4023b6:	f2 ae                	repnz scas %es:(%rdi),%al
  4023b8:	48 f7 d1             	not    %rcx
  4023bb:	4d 8d 44 08 fe       	lea    -0x2(%r8,%rcx,1),%r8
  4023c0:	48 89 f1             	mov    %rsi,%rcx
  4023c3:	48 8b 7c 24 08       	mov    0x8(%rsp),%rdi
  4023c8:	f2 ae                	repnz scas %es:(%rdi),%al
  4023ca:	48 89 c8             	mov    %rcx,%rax
  4023cd:	48 f7 d0             	not    %rax
  4023d0:	49 8d 4c 00 ff       	lea    -0x1(%r8,%rax,1),%rcx
  4023d5:	48 8d 44 52 fd       	lea    -0x3(%rdx,%rdx,2),%rax
  4023da:	48 8d 84 01 80 00 00 	lea    0x80(%rcx,%rax,1),%rax
  4023e1:	00 
  4023e2:	48 3d 00 20 00 00    	cmp    $0x2000,%rax
  4023e8:	0f 87 f5 01 00 00    	ja     4025e3 <submitr+0x32a>
  4023ee:	48 8d b4 24 20 40 00 	lea    0x4020(%rsp),%rsi
  4023f5:	00 
  4023f6:	b9 00 04 00 00       	mov    $0x400,%ecx
  4023fb:	b8 00 00 00 00       	mov    $0x0,%eax
  402400:	48 89 f7             	mov    %rsi,%rdi
  402403:	f3 48 ab             	rep stos %rax,%es:(%rdi)
  402406:	4c 89 ef             	mov    %r13,%rdi
  402409:	e8 68 fc ff ff       	callq  402076 <urlencode>
  40240e:	85 c0                	test   %eax,%eax
  402410:	0f 88 40 02 00 00    	js     402656 <submitr+0x39d>
  402416:	4c 8d ac 24 20 60 00 	lea    0x6020(%rsp),%r13
  40241d:	00 
  40241e:	4d 89 e1             	mov    %r12,%r9
  402421:	4c 8d 84 24 20 40 00 	lea    0x4020(%rsp),%r8
  402428:	00 
  402429:	4c 89 f9             	mov    %r15,%rcx
  40242c:	4c 89 f2             	mov    %r14,%rdx
  40242f:	be 58 35 40 00       	mov    $0x403558,%esi
  402434:	4c 89 ef             	mov    %r13,%rdi
  402437:	b8 00 00 00 00       	mov    $0x0,%eax
  40243c:	e8 7f ea ff ff       	callq  400ec0 <sprintf@plt>
  402441:	48 c7 c1 ff ff ff ff 	mov    $0xffffffffffffffff,%rcx
  402448:	b8 00 00 00 00       	mov    $0x0,%eax
  40244d:	4c 89 ef             	mov    %r13,%rdi
  402450:	f2 ae                	repnz scas %es:(%rdi),%al
  402452:	48 89 ca             	mov    %rcx,%rdx
  402455:	48 f7 d2             	not    %rdx
  402458:	48 8d 52 ff          	lea    -0x1(%rdx),%rdx
  40245c:	4c 89 ee             	mov    %r13,%rsi
  40245f:	89 df                	mov    %ebx,%edi
  402461:	e8 eb fc ff ff       	callq  402151 <rio_writen>
  402466:	48 85 c0             	test   %rax,%rax
  402469:	0f 88 72 02 00 00    	js     4026e1 <submitr+0x428>
  40246f:	89 de                	mov    %ebx,%esi
  402471:	48 8d bc 24 20 80 00 	lea    0x8020(%rsp),%rdi
  402478:	00 
  402479:	e8 bd fb ff ff       	callq  40203b <rio_readinitb>
  40247e:	ba 00 20 00 00       	mov    $0x2000,%edx
  402483:	48 8d b4 24 20 60 00 	lea    0x6020(%rsp),%rsi
  40248a:	00 
  40248b:	48 8d bc 24 20 80 00 	lea    0x8020(%rsp),%rdi
  402492:	00 
  402493:	e8 a2 fd ff ff       	callq  40223a <rio_readlineb>
  402498:	48 85 c0             	test   %rax,%rax
  40249b:	0f 8e af 02 00 00    	jle    402750 <submitr+0x497>
  4024a1:	4c 8d 44 24 10       	lea    0x10(%rsp),%r8
  4024a6:	48 8d 8c 24 1c 20 00 	lea    0x201c(%rsp),%rcx
  4024ad:	00 
  4024ae:	48 8d 94 24 20 20 00 	lea    0x2020(%rsp),%rdx
  4024b5:	00 
  4024b6:	be cf 35 40 00       	mov    $0x4035cf,%esi
  4024bb:	48 8d bc 24 20 60 00 	lea    0x6020(%rsp),%rdi
  4024c2:	00 
  4024c3:	b8 00 00 00 00       	mov    $0x0,%eax
  4024c8:	e8 83 e9 ff ff       	callq  400e50 <__isoc99_sscanf@plt>
  4024cd:	e9 a7 03 00 00       	jmpq   402879 <submitr+0x5c0>
  4024d2:	48 b8 45 72 72 6f 72 	mov    $0x43203a726f727245,%rax
  4024d9:	3a 20 43 
  4024dc:	48 ba 6c 69 65 6e 74 	mov    $0x6e7520746e65696c,%rdx
  4024e3:	20 75 6e 
  4024e6:	48 89 45 00          	mov    %rax,0x0(%rbp)
  4024ea:	48 89 55 08          	mov    %rdx,0x8(%rbp)
  4024ee:	48 b8 61 62 6c 65 20 	mov    $0x206f7420656c6261,%rax
  4024f5:	74 6f 20 
  4024f8:	48 ba 63 72 65 61 74 	mov    $0x7320657461657263,%rdx
  4024ff:	65 20 73 
  402502:	48 89 45 10          	mov    %rax,0x10(%rbp)
  402506:	48 89 55 18          	mov    %rdx,0x18(%rbp)
  40250a:	c7 45 20 6f 63 6b 65 	movl   $0x656b636f,0x20(%rbp)
  402511:	66 c7 45 24 74 00    	movw   $0x74,0x24(%rbp)
  402517:	b8 ff ff ff ff       	mov    $0xffffffff,%eax
  40251c:	e9 1f 03 00 00       	jmpq   402840 <submitr+0x587>
  402521:	48 b8 45 72 72 6f 72 	mov    $0x44203a726f727245,%rax
  402528:	3a 20 44 
  40252b:	48 ba 4e 53 20 69 73 	mov    $0x6e7520736920534e,%rdx
  402532:	20 75 6e 
  402535:	48 89 45 00          	mov    %rax,0x0(%rbp)
  402539:	48 89 55 08          	mov    %rdx,0x8(%rbp)
  40253d:	48 b8 61 62 6c 65 20 	mov    $0x206f7420656c6261,%rax
  402544:	74 6f 20 
  402547:	48 ba 72 65 73 6f 6c 	mov    $0x2065766c6f736572,%rdx
  40254e:	76 65 20 
  402551:	48 89 45 10          	mov    %rax,0x10(%rbp)
  402555:	48 89 55 18          	mov    %rdx,0x18(%rbp)
  402559:	48 b8 73 65 72 76 65 	mov    $0x6120726576726573,%rax
  402560:	72 20 61 
  402563:	48 89 45 20          	mov    %rax,0x20(%rbp)
  402567:	c7 45 28 64 64 72 65 	movl   $0x65726464,0x28(%rbp)
  40256e:	66 c7 45 2c 73 73    	movw   $0x7373,0x2c(%rbp)
  402574:	c6 45 2e 00          	movb   $0x0,0x2e(%rbp)
  402578:	89 df                	mov    %ebx,%edi
  40257a:	e8 11 e8 ff ff       	callq  400d90 <close@plt>
  40257f:	b8 ff ff ff ff       	mov    $0xffffffff,%eax
  402584:	e9 b7 02 00 00       	jmpq   402840 <submitr+0x587>
  402589:	48 b8 45 72 72 6f 72 	mov    $0x55203a726f727245,%rax
  402590:	3a 20 55 
  402593:	48 ba 6e 61 62 6c 65 	mov    $0x6f7420656c62616e,%rdx
  40259a:	20 74 6f 
  40259d:	48 89 45 00          	mov    %rax,0x0(%rbp)
  4025a1:	48 89 55 08          	mov    %rdx,0x8(%rbp)
  4025a5:	48 b8 20 63 6f 6e 6e 	mov    $0x7463656e6e6f6320,%rax
  4025ac:	65 63 74 
  4025af:	48 ba 20 74 6f 20 74 	mov    $0x20656874206f7420,%rdx
  4025b6:	68 65 20 
  4025b9:	48 89 45 10          	mov    %rax,0x10(%rbp)
  4025bd:	48 89 55 18          	mov    %rdx,0x18(%rbp)
  4025c1:	c7 45 20 73 65 72 76 	movl   $0x76726573,0x20(%rbp)
  4025c8:	66 c7 45 24 65 72    	movw   $0x7265,0x24(%rbp)
  4025ce:	c6 45 26 00          	movb   $0x0,0x26(%rbp)
  4025d2:	89 df                	mov    %ebx,%edi
  4025d4:	e8 b7 e7 ff ff       	callq  400d90 <close@plt>
  4025d9:	b8 ff ff ff ff       	mov    $0xffffffff,%eax
  4025de:	e9 5d 02 00 00       	jmpq   402840 <submitr+0x587>
  4025e3:	48 b8 45 72 72 6f 72 	mov    $0x52203a726f727245,%rax
  4025ea:	3a 20 52 
  4025ed:	48 ba 65 73 75 6c 74 	mov    $0x747320746c757365,%rdx
  4025f4:	20 73 74 
  4025f7:	48 89 45 00          	mov    %rax,0x0(%rbp)
  4025fb:	48 89 55 08          	mov    %rdx,0x8(%rbp)
  4025ff:	48 b8 72 69 6e 67 20 	mov    $0x6f6f7420676e6972,%rax
  402606:	74 6f 6f 
  402609:	48 ba 20 6c 61 72 67 	mov    $0x202e656772616c20,%rdx
  402610:	65 2e 20 
  402613:	48 89 45 10          	mov    %rax,0x10(%rbp)
  402617:	48 89 55 18          	mov    %rdx,0x18(%rbp)
  40261b:	48 b8 49 6e 63 72 65 	mov    $0x6573616572636e49,%rax
  402622:	61 73 65 
  402625:	48 ba 20 53 55 42 4d 	mov    $0x5254494d42555320,%rdx
  40262c:	49 54 52 
  40262f:	48 89 45 20          	mov    %rax,0x20(%rbp)
  402633:	48 89 55 28          	mov    %rdx,0x28(%rbp)
  402637:	48 b8 5f 4d 41 58 42 	mov    $0x46554258414d5f,%rax
  40263e:	55 46 00 
  402641:	48 89 45 30          	mov    %rax,0x30(%rbp)
  402645:	89 df                	mov    %ebx,%edi
  402647:	e8 44 e7 ff ff       	callq  400d90 <close@plt>
  40264c:	b8 ff ff ff ff       	mov    $0xffffffff,%eax
  402651:	e9 ea 01 00 00       	jmpq   402840 <submitr+0x587>
  402656:	48 b8 45 72 72 6f 72 	mov    $0x52203a726f727245,%rax
  40265d:	3a 20 52 
  402660:	48 ba 65 73 75 6c 74 	mov    $0x747320746c757365,%rdx
  402667:	20 73 74 
  40266a:	48 89 45 00          	mov    %rax,0x0(%rbp)
  40266e:	48 89 55 08          	mov    %rdx,0x8(%rbp)
  402672:	48 b8 72 69 6e 67 20 	mov    $0x6e6f6320676e6972,%rax
  402679:	63 6f 6e 
  40267c:	48 ba 74 61 69 6e 73 	mov    $0x6e6120736e696174,%rdx
  402683:	20 61 6e 
  402686:	48 89 45 10          	mov    %rax,0x10(%rbp)
  40268a:	48 89 55 18          	mov    %rdx,0x18(%rbp)
  40268e:	48 b8 20 69 6c 6c 65 	mov    $0x6c6167656c6c6920,%rax
  402695:	67 61 6c 
  402698:	48 ba 20 6f 72 20 75 	mov    $0x72706e7520726f20,%rdx
  40269f:	6e 70 72 
  4026a2:	48 89 45 20          	mov    %rax,0x20(%rbp)
  4026a6:	48 89 55 28          	mov    %rdx,0x28(%rbp)
  4026aa:	48 b8 69 6e 74 61 62 	mov    $0x20656c6261746e69,%rax
  4026b1:	6c 65 20 
  4026b4:	48 ba 63 68 61 72 61 	mov    $0x6574636172616863,%rdx
  4026bb:	63 74 65 
  4026be:	48 89 45 30          	mov    %rax,0x30(%rbp)
  4026c2:	48 89 55 38          	mov    %rdx,0x38(%rbp)
  4026c6:	66 c7 45 40 72 2e    	movw   $0x2e72,0x40(%rbp)
  4026cc:	c6 45 42 00          	movb   $0x0,0x42(%rbp)
  4026d0:	89 df                	mov    %ebx,%edi
  4026d2:	e8 b9 e6 ff ff       	callq  400d90 <close@plt>
  4026d7:	b8 ff ff ff ff       	mov    $0xffffffff,%eax
  4026dc:	e9 5f 01 00 00       	jmpq   402840 <submitr+0x587>
  4026e1:	48 b8 45 72 72 6f 72 	mov    $0x43203a726f727245,%rax
  4026e8:	3a 20 43 
  4026eb:	48 ba 6c 69 65 6e 74 	mov    $0x6e7520746e65696c,%rdx
  4026f2:	20 75 6e 
  4026f5:	48 89 45 00          	mov    %rax,0x0(%rbp)
  4026f9:	48 89 55 08          	mov    %rdx,0x8(%rbp)
  4026fd:	48 b8 61 62 6c 65 20 	mov    $0x206f7420656c6261,%rax
  402704:	74 6f 20 
  402707:	48 ba 77 72 69 74 65 	mov    $0x6f74206574697277,%rdx
  40270e:	20 74 6f 
  402711:	48 89 45 10          	mov    %rax,0x10(%rbp)
  402715:	48 89 55 18          	mov    %rdx,0x18(%rbp)
  402719:	48 b8 20 74 68 65 20 	mov    $0x7365722065687420,%rax
  402720:	72 65 73 
  402723:	48 ba 75 6c 74 20 73 	mov    $0x7672657320746c75,%rdx
  40272a:	65 72 76 
  40272d:	48 89 45 20          	mov    %rax,0x20(%rbp)
  402731:	48 89 55 28          	mov    %rdx,0x28(%rbp)
  402735:	66 c7 45 30 65 72    	movw   $0x7265,0x30(%rbp)
  40273b:	c6 45 32 00          	movb   $0x0,0x32(%rbp)
  40273f:	89 df                	mov    %ebx,%edi
  402741:	e8 4a e6 ff ff       	callq  400d90 <close@plt>
  402746:	b8 ff ff ff ff       	mov    $0xffffffff,%eax
  40274b:	e9 f0 00 00 00       	jmpq   402840 <submitr+0x587>
  402750:	48 b8 45 72 72 6f 72 	mov    $0x43203a726f727245,%rax
  402757:	3a 20 43 
  40275a:	48 ba 6c 69 65 6e 74 	mov    $0x6e7520746e65696c,%rdx
  402761:	20 75 6e 
  402764:	48 89 45 00          	mov    %rax,0x0(%rbp)
  402768:	48 89 55 08          	mov    %rdx,0x8(%rbp)
  40276c:	48 b8 61 62 6c 65 20 	mov    $0x206f7420656c6261,%rax
  402773:	74 6f 20 
  402776:	48 ba 72 65 61 64 20 	mov    $0x7269662064616572,%rdx
  40277d:	66 69 72 
  402780:	48 89 45 10          	mov    %rax,0x10(%rbp)
  402784:	48 89 55 18          	mov    %rdx,0x18(%rbp)
  402788:	48 b8 73 74 20 68 65 	mov    $0x6564616568207473,%rax
  40278f:	61 64 65 
  402792:	48 ba 72 20 66 72 6f 	mov    $0x72206d6f72662072,%rdx
  402799:	6d 20 72 
  40279c:	48 89 45 20          	mov    %rax,0x20(%rbp)
  4027a0:	48 89 55 28          	mov    %rdx,0x28(%rbp)
  4027a4:	48 b8 65 73 75 6c 74 	mov    $0x657320746c757365,%rax
  4027ab:	20 73 65 
  4027ae:	48 89 45 30          	mov    %rax,0x30(%rbp)
  4027b2:	c7 45 38 72 76 65 72 	movl   $0x72657672,0x38(%rbp)
  4027b9:	c6 45 3c 00          	movb   $0x0,0x3c(%rbp)
  4027bd:	89 df                	mov    %ebx,%edi
  4027bf:	e8 cc e5 ff ff       	callq  400d90 <close@plt>
  4027c4:	b8 ff ff ff ff       	mov    $0xffffffff,%eax
  4027c9:	eb 75                	jmp    402840 <submitr+0x587>
  4027cb:	48 b8 45 72 72 6f 72 	mov    $0x43203a726f727245,%rax
  4027d2:	3a 20 43 
  4027d5:	48 ba 6c 69 65 6e 74 	mov    $0x6e7520746e65696c,%rdx
  4027dc:	20 75 6e 
  4027df:	48 89 45 00          	mov    %rax,0x0(%rbp)
  4027e3:	48 89 55 08          	mov    %rdx,0x8(%rbp)
  4027e7:	48 b8 61 62 6c 65 20 	mov    $0x206f7420656c6261,%rax
  4027ee:	74 6f 20 
  4027f1:	48 ba 72 65 61 64 20 	mov    $0x6165682064616572,%rdx
  4027f8:	68 65 61 
  4027fb:	48 89 45 10          	mov    %rax,0x10(%rbp)
  4027ff:	48 89 55 18          	mov    %rdx,0x18(%rbp)
  402803:	48 b8 64 65 72 73 20 	mov    $0x6f72662073726564,%rax
  40280a:	66 72 6f 
  40280d:	48 ba 6d 20 74 68 65 	mov    $0x657220656874206d,%rdx
  402814:	20 72 65 
  402817:	48 89 45 20          	mov    %rax,0x20(%rbp)
  40281b:	48 89 55 28          	mov    %rdx,0x28(%rbp)
  40281f:	48 b8 73 75 6c 74 20 	mov    $0x72657320746c7573,%rax
  402826:	73 65 72 
  402829:	48 89 45 30          	mov    %rax,0x30(%rbp)
  40282d:	c7 45 38 76 65 72 00 	movl   $0x726576,0x38(%rbp)
  402834:	89 df                	mov    %ebx,%edi
  402836:	e8 55 e5 ff ff       	callq  400d90 <close@plt>
  40283b:	b8 ff ff ff ff       	mov    $0xffffffff,%eax
  402840:	48 81 c4 48 a0 00 00 	add    $0xa048,%rsp
  402847:	5b                   	pop    %rbx
  402848:	5d                   	pop    %rbp
  402849:	41 5c                	pop    %r12
  40284b:	41 5d                	pop    %r13
  40284d:	41 5e                	pop    %r14
  40284f:	41 5f                	pop    %r15
  402851:	c3                   	retq   
  402852:	85 c0                	test   %eax,%eax
  402854:	74 47                	je     40289d <submitr+0x5e4>
  402856:	ba 00 20 00 00       	mov    $0x2000,%edx
  40285b:	48 8d b4 24 20 60 00 	lea    0x6020(%rsp),%rsi
  402862:	00 
  402863:	48 8d bc 24 20 80 00 	lea    0x8020(%rsp),%rdi
  40286a:	00 
  40286b:	e8 ca f9 ff ff       	callq  40223a <rio_readlineb>
  402870:	48 85 c0             	test   %rax,%rax
  402873:	0f 8e 52 ff ff ff    	jle    4027cb <submitr+0x512>
  402879:	0f b6 84 24 20 60 00 	movzbl 0x6020(%rsp),%eax
  402880:	00 
  402881:	83 e8 0d             	sub    $0xd,%eax
  402884:	75 cc                	jne    402852 <submitr+0x599>
  402886:	0f b6 84 24 21 60 00 	movzbl 0x6021(%rsp),%eax
  40288d:	00 
  40288e:	83 e8 0a             	sub    $0xa,%eax
  402891:	75 bf                	jne    402852 <submitr+0x599>
  402893:	0f b6 84 24 22 60 00 	movzbl 0x6022(%rsp),%eax
  40289a:	00 
  40289b:	eb b5                	jmp    402852 <submitr+0x599>
  40289d:	ba 00 20 00 00       	mov    $0x2000,%edx
  4028a2:	48 8d b4 24 20 60 00 	lea    0x6020(%rsp),%rsi
  4028a9:	00 
  4028aa:	48 8d bc 24 20 80 00 	lea    0x8020(%rsp),%rdi
  4028b1:	00 
  4028b2:	e8 83 f9 ff ff       	callq  40223a <rio_readlineb>
  4028b7:	48 85 c0             	test   %rax,%rax
  4028ba:	0f 8e 97 00 00 00    	jle    402957 <submitr+0x69e>
  4028c0:	8b 94 24 1c 20 00 00 	mov    0x201c(%rsp),%edx
  4028c7:	81 fa c8 00 00 00    	cmp    $0xc8,%edx
  4028cd:	0f 85 08 01 00 00    	jne    4029db <submitr+0x722>
  4028d3:	48 8d b4 24 20 60 00 	lea    0x6020(%rsp),%rsi
  4028da:	00 
  4028db:	48 89 ef             	mov    %rbp,%rdi
  4028de:	e8 3d e4 ff ff       	callq  400d20 <strcpy@plt>
  4028e3:	89 df                	mov    %ebx,%edi
  4028e5:	e8 a6 e4 ff ff       	callq  400d90 <close@plt>
  4028ea:	0f b6 45 00          	movzbl 0x0(%rbp),%eax
  4028ee:	83 e8 4f             	sub    $0x4f,%eax
  4028f1:	89 c2                	mov    %eax,%edx
  4028f3:	75 16                	jne    40290b <submitr+0x652>
  4028f5:	0f b6 45 01          	movzbl 0x1(%rbp),%eax
  4028f9:	83 e8 4b             	sub    $0x4b,%eax
  4028fc:	75 0d                	jne    40290b <submitr+0x652>
  4028fe:	0f b6 45 02          	movzbl 0x2(%rbp),%eax
  402902:	83 e8 0a             	sub    $0xa,%eax
  402905:	75 04                	jne    40290b <submitr+0x652>
  402907:	0f b6 45 03          	movzbl 0x3(%rbp),%eax
  40290b:	85 c0                	test   %eax,%eax
  40290d:	0f 84 2d ff ff ff    	je     402840 <submitr+0x587>
  402913:	bf e0 35 40 00       	mov    $0x4035e0,%edi
  402918:	b9 05 00 00 00       	mov    $0x5,%ecx
  40291d:	48 89 ee             	mov    %rbp,%rsi
  402920:	f3 a6                	repz cmpsb %es:(%rdi),%ds:(%rsi)
  402922:	0f 97 c0             	seta   %al
  402925:	0f 92 c1             	setb   %cl
  402928:	29 c8                	sub    %ecx,%eax
  40292a:	0f be c0             	movsbl %al,%eax
  40292d:	85 c0                	test   %eax,%eax
  40292f:	0f 84 0b ff ff ff    	je     402840 <submitr+0x587>
  402935:	85 d2                	test   %edx,%edx
  402937:	75 0f                	jne    402948 <submitr+0x68f>
  402939:	0f b6 45 01          	movzbl 0x1(%rbp),%eax
  40293d:	83 e8 4b             	sub    $0x4b,%eax
  402940:	89 c2                	mov    %eax,%edx
  402942:	75 04                	jne    402948 <submitr+0x68f>
  402944:	0f b6 55 02          	movzbl 0x2(%rbp),%edx
  402948:	85 d2                	test   %edx,%edx
  40294a:	0f 85 b3 00 00 00    	jne    402a03 <submitr+0x74a>
  402950:	89 d0                	mov    %edx,%eax
  402952:	e9 e9 fe ff ff       	jmpq   402840 <submitr+0x587>
  402957:	48 b8 45 72 72 6f 72 	mov    $0x43203a726f727245,%rax
  40295e:	3a 20 43 
  402961:	48 ba 6c 69 65 6e 74 	mov    $0x6e7520746e65696c,%rdx
  402968:	20 75 6e 
  40296b:	48 89 45 00          	mov    %rax,0x0(%rbp)
  40296f:	48 89 55 08          	mov    %rdx,0x8(%rbp)
  402973:	48 b8 61 62 6c 65 20 	mov    $0x206f7420656c6261,%rax
  40297a:	74 6f 20 
  40297d:	48 ba 72 65 61 64 20 	mov    $0x6174732064616572,%rdx
  402984:	73 74 61 
  402987:	48 89 45 10          	mov    %rax,0x10(%rbp)
  40298b:	48 89 55 18          	mov    %rdx,0x18(%rbp)
  40298f:	48 b8 74 75 73 20 6d 	mov    $0x7373656d20737574,%rax
  402996:	65 73 73 
  402999:	48 ba 61 67 65 20 66 	mov    $0x6d6f726620656761,%rdx
  4029a0:	72 6f 6d 
  4029a3:	48 89 45 20          	mov    %rax,0x20(%rbp)
  4029a7:	48 89 55 28          	mov    %rdx,0x28(%rbp)
  4029ab:	48 b8 20 72 65 73 75 	mov    $0x20746c7573657220,%rax
  4029b2:	6c 74 20 
  4029b5:	48 89 45 30          	mov    %rax,0x30(%rbp)
  4029b9:	c7 45 38 73 65 72 76 	movl   $0x76726573,0x38(%rbp)
  4029c0:	66 c7 45 3c 65 72    	movw   $0x7265,0x3c(%rbp)
  4029c6:	c6 45 3e 00          	movb   $0x0,0x3e(%rbp)
  4029ca:	89 df                	mov    %ebx,%edi
  4029cc:	e8 bf e3 ff ff       	callq  400d90 <close@plt>
  4029d1:	b8 ff ff ff ff       	mov    $0xffffffff,%eax
  4029d6:	e9 65 fe ff ff       	jmpq   402840 <submitr+0x587>
  4029db:	48 8d 4c 24 10       	lea    0x10(%rsp),%rcx
  4029e0:	be 98 35 40 00       	mov    $0x403598,%esi
  4029e5:	48 89 ef             	mov    %rbp,%rdi
  4029e8:	b8 00 00 00 00       	mov    $0x0,%eax
  4029ed:	e8 ce e4 ff ff       	callq  400ec0 <sprintf@plt>
  4029f2:	89 df                	mov    %ebx,%edi
  4029f4:	e8 97 e3 ff ff       	callq  400d90 <close@plt>
  4029f9:	b8 ff ff ff ff       	mov    $0xffffffff,%eax
  4029fe:	e9 3d fe ff ff       	jmpq   402840 <submitr+0x587>
  402a03:	b8 ff ff ff ff       	mov    $0xffffffff,%eax
  402a08:	e9 33 fe ff ff       	jmpq   402840 <submitr+0x587>

0000000000402a0d <init_timeout>:
  402a0d:	85 ff                	test   %edi,%edi
  402a0f:	74 26                	je     402a37 <init_timeout+0x2a>
  402a11:	53                   	push   %rbx
  402a12:	89 fb                	mov    %edi,%ebx
  402a14:	85 ff                	test   %edi,%edi
  402a16:	78 18                	js     402a30 <init_timeout+0x23>
  402a18:	be 4d 20 40 00       	mov    $0x40204d,%esi
  402a1d:	bf 0e 00 00 00       	mov    $0xe,%edi
  402a22:	e8 99 e3 ff ff       	callq  400dc0 <signal@plt>
  402a27:	89 df                	mov    %ebx,%edi
  402a29:	e8 52 e3 ff ff       	callq  400d80 <alarm@plt>
  402a2e:	5b                   	pop    %rbx
  402a2f:	c3                   	retq   
  402a30:	bb 00 00 00 00       	mov    $0x0,%ebx
  402a35:	eb e1                	jmp    402a18 <init_timeout+0xb>
  402a37:	f3 c3                	repz retq 

0000000000402a39 <init_driver>:
  402a39:	55                   	push   %rbp
  402a3a:	53                   	push   %rbx
  402a3b:	48 83 ec 18          	sub    $0x18,%rsp
  402a3f:	48 89 fd             	mov    %rdi,%rbp
  402a42:	be 01 00 00 00       	mov    $0x1,%esi
  402a47:	bf 0d 00 00 00       	mov    $0xd,%edi
  402a4c:	e8 6f e3 ff ff       	callq  400dc0 <signal@plt>
  402a51:	be 01 00 00 00       	mov    $0x1,%esi
  402a56:	bf 1d 00 00 00       	mov    $0x1d,%edi
  402a5b:	e8 60 e3 ff ff       	callq  400dc0 <signal@plt>
  402a60:	be 01 00 00 00       	mov    $0x1,%esi
  402a65:	bf 1d 00 00 00       	mov    $0x1d,%edi
  402a6a:	e8 51 e3 ff ff       	callq  400dc0 <signal@plt>
  402a6f:	ba 00 00 00 00       	mov    $0x0,%edx
  402a74:	be 01 00 00 00       	mov    $0x1,%esi
  402a79:	bf 02 00 00 00       	mov    $0x2,%edi
  402a7e:	e8 6d e4 ff ff       	callq  400ef0 <socket@plt>
  402a83:	85 c0                	test   %eax,%eax
  402a85:	78 7c                	js     402b03 <init_driver+0xca>
  402a87:	89 c3                	mov    %eax,%ebx
  402a89:	bf d9 30 40 00       	mov    $0x4030d9,%edi
  402a8e:	e8 3d e3 ff ff       	callq  400dd0 <gethostbyname@plt>
  402a93:	48 85 c0             	test   %rax,%rax
  402a96:	0f 84 b3 00 00 00    	je     402b4f <init_driver+0x116>
  402a9c:	48 c7 04 24 00 00 00 	movq   $0x0,(%rsp)
  402aa3:	00 
  402aa4:	48 c7 44 24 08 00 00 	movq   $0x0,0x8(%rsp)
  402aab:	00 00 
  402aad:	66 c7 04 24 02 00    	movw   $0x2,(%rsp)
  402ab3:	48 8b 48 18          	mov    0x18(%rax),%rcx
  402ab7:	48 63 50 14          	movslq 0x14(%rax),%rdx
  402abb:	48 8d 74 24 04       	lea    0x4(%rsp),%rsi
  402ac0:	48 8b 39             	mov    (%rcx),%rdi
  402ac3:	e8 a8 e3 ff ff       	callq  400e70 <bcopy@plt>
  402ac8:	66 c7 44 24 02 47 26 	movw   $0x2647,0x2(%rsp)
  402acf:	ba 10 00 00 00       	mov    $0x10,%edx
  402ad4:	48 89 e6             	mov    %rsp,%rsi
  402ad7:	89 df                	mov    %ebx,%edi
  402ad9:	e8 02 e4 ff ff       	callq  400ee0 <connect@plt>
  402ade:	85 c0                	test   %eax,%eax
  402ae0:	0f 88 d1 00 00 00    	js     402bb7 <init_driver+0x17e>
  402ae6:	89 df                	mov    %ebx,%edi
  402ae8:	e8 a3 e2 ff ff       	callq  400d90 <close@plt>
  402aed:	66 c7 45 00 4f 4b    	movw   $0x4b4f,0x0(%rbp)
  402af3:	c6 45 02 00          	movb   $0x0,0x2(%rbp)
  402af7:	b8 00 00 00 00       	mov    $0x0,%eax
  402afc:	48 83 c4 18          	add    $0x18,%rsp
  402b00:	5b                   	pop    %rbx
  402b01:	5d                   	pop    %rbp
  402b02:	c3                   	retq   
  402b03:	48 b8 45 72 72 6f 72 	mov    $0x43203a726f727245,%rax
  402b0a:	3a 20 43 
  402b0d:	48 ba 6c 69 65 6e 74 	mov    $0x6e7520746e65696c,%rdx
  402b14:	20 75 6e 
  402b17:	48 89 45 00          	mov    %rax,0x0(%rbp)
  402b1b:	48 89 55 08          	mov    %rdx,0x8(%rbp)
  402b1f:	48 b8 61 62 6c 65 20 	mov    $0x206f7420656c6261,%rax
  402b26:	74 6f 20 
  402b29:	48 ba 63 72 65 61 74 	mov    $0x7320657461657263,%rdx
  402b30:	65 20 73 
  402b33:	48 89 45 10          	mov    %rax,0x10(%rbp)
  402b37:	48 89 55 18          	mov    %rdx,0x18(%rbp)
  402b3b:	c7 45 20 6f 63 6b 65 	movl   $0x656b636f,0x20(%rbp)
  402b42:	66 c7 45 24 74 00    	movw   $0x74,0x24(%rbp)
  402b48:	b8 ff ff ff ff       	mov    $0xffffffff,%eax
  402b4d:	eb ad                	jmp    402afc <init_driver+0xc3>
  402b4f:	48 b8 45 72 72 6f 72 	mov    $0x44203a726f727245,%rax
  402b56:	3a 20 44 
  402b59:	48 ba 4e 53 20 69 73 	mov    $0x6e7520736920534e,%rdx
  402b60:	20 75 6e 
  402b63:	48 89 45 00          	mov    %rax,0x0(%rbp)
  402b67:	48 89 55 08          	mov    %rdx,0x8(%rbp)
  402b6b:	48 b8 61 62 6c 65 20 	mov    $0x206f7420656c6261,%rax
  402b72:	74 6f 20 
  402b75:	48 ba 72 65 73 6f 6c 	mov    $0x2065766c6f736572,%rdx
  402b7c:	76 65 20 
  402b7f:	48 89 45 10          	mov    %rax,0x10(%rbp)
  402b83:	48 89 55 18          	mov    %rdx,0x18(%rbp)
  402b87:	48 b8 73 65 72 76 65 	mov    $0x6120726576726573,%rax
  402b8e:	72 20 61 
  402b91:	48 89 45 20          	mov    %rax,0x20(%rbp)
  402b95:	c7 45 28 64 64 72 65 	movl   $0x65726464,0x28(%rbp)
  402b9c:	66 c7 45 2c 73 73    	movw   $0x7373,0x2c(%rbp)
  402ba2:	c6 45 2e 00          	movb   $0x0,0x2e(%rbp)
  402ba6:	89 df                	mov    %ebx,%edi
  402ba8:	e8 e3 e1 ff ff       	callq  400d90 <close@plt>
  402bad:	b8 ff ff ff ff       	mov    $0xffffffff,%eax
  402bb2:	e9 45 ff ff ff       	jmpq   402afc <init_driver+0xc3>
  402bb7:	48 b8 45 72 72 6f 72 	mov    $0x55203a726f727245,%rax
  402bbe:	3a 20 55 
  402bc1:	48 ba 6e 61 62 6c 65 	mov    $0x6f7420656c62616e,%rdx
  402bc8:	20 74 6f 
  402bcb:	48 89 45 00          	mov    %rax,0x0(%rbp)
  402bcf:	48 89 55 08          	mov    %rdx,0x8(%rbp)
  402bd3:	48 b8 20 63 6f 6e 6e 	mov    $0x7463656e6e6f6320,%rax
  402bda:	65 63 74 
  402bdd:	48 ba 20 74 6f 20 73 	mov    $0x76726573206f7420,%rdx
  402be4:	65 72 76 
  402be7:	48 89 45 10          	mov    %rax,0x10(%rbp)
  402beb:	48 89 55 18          	mov    %rdx,0x18(%rbp)
  402bef:	66 c7 45 20 65 72    	movw   $0x7265,0x20(%rbp)
  402bf5:	c6 45 22 00          	movb   $0x0,0x22(%rbp)
  402bf9:	89 df                	mov    %ebx,%edi
  402bfb:	e8 90 e1 ff ff       	callq  400d90 <close@plt>
  402c00:	b8 ff ff ff ff       	mov    $0xffffffff,%eax
  402c05:	e9 f2 fe ff ff       	jmpq   402afc <init_driver+0xc3>

0000000000402c0a <driver_post>:
  402c0a:	53                   	push   %rbx
  402c0b:	4c 89 cb             	mov    %r9,%rbx
  402c0e:	45 85 c0             	test   %r8d,%r8d
  402c11:	75 18                	jne    402c2b <driver_post+0x21>
  402c13:	48 85 ff             	test   %rdi,%rdi
  402c16:	74 05                	je     402c1d <driver_post+0x13>
  402c18:	80 3f 00             	cmpb   $0x0,(%rdi)
  402c1b:	75 30                	jne    402c4d <driver_post+0x43>
  402c1d:	66 c7 03 4f 4b       	movw   $0x4b4f,(%rbx)
  402c22:	c6 43 02 00          	movb   $0x0,0x2(%rbx)
  402c26:	44 89 c0             	mov    %r8d,%eax
  402c29:	5b                   	pop    %rbx
  402c2a:	c3                   	retq   
  402c2b:	48 89 ce             	mov    %rcx,%rsi
  402c2e:	bf e5 35 40 00       	mov    $0x4035e5,%edi
  402c33:	b8 00 00 00 00       	mov    $0x0,%eax
  402c38:	e8 23 e1 ff ff       	callq  400d60 <printf@plt>
  402c3d:	66 c7 03 4f 4b       	movw   $0x4b4f,(%rbx)
  402c42:	c6 43 02 00          	movb   $0x0,0x2(%rbx)
  402c46:	b8 00 00 00 00       	mov    $0x0,%eax
  402c4b:	eb dc                	jmp    402c29 <driver_post+0x1f>
  402c4d:	48 83 ec 08          	sub    $0x8,%rsp
  402c51:	41 51                	push   %r9
  402c53:	49 89 c9             	mov    %rcx,%r9
  402c56:	49 89 d0             	mov    %rdx,%r8
  402c59:	48 89 f9             	mov    %rdi,%rcx
  402c5c:	48 89 f2             	mov    %rsi,%rdx
  402c5f:	be 26 47 00 00       	mov    $0x4726,%esi
  402c64:	bf d9 30 40 00       	mov    $0x4030d9,%edi
  402c69:	e8 4b f6 ff ff       	callq  4022b9 <submitr>
  402c6e:	48 83 c4 10          	add    $0x10,%rsp
  402c72:	eb b5                	jmp    402c29 <driver_post+0x1f>

0000000000402c74 <check>:
  402c74:	89 f8                	mov    %edi,%eax
  402c76:	c1 e8 1c             	shr    $0x1c,%eax
  402c79:	85 c0                	test   %eax,%eax
  402c7b:	74 1d                	je     402c9a <check+0x26>
  402c7d:	b9 00 00 00 00       	mov    $0x0,%ecx
  402c82:	83 f9 1f             	cmp    $0x1f,%ecx
  402c85:	7f 0d                	jg     402c94 <check+0x20>
  402c87:	89 f8                	mov    %edi,%eax
  402c89:	d3 e8                	shr    %cl,%eax
  402c8b:	3c 0a                	cmp    $0xa,%al
  402c8d:	74 11                	je     402ca0 <check+0x2c>
  402c8f:	83 c1 08             	add    $0x8,%ecx
  402c92:	eb ee                	jmp    402c82 <check+0xe>
  402c94:	b8 01 00 00 00       	mov    $0x1,%eax
  402c99:	c3                   	retq   
  402c9a:	b8 00 00 00 00       	mov    $0x0,%eax
  402c9f:	c3                   	retq   
  402ca0:	b8 00 00 00 00       	mov    $0x0,%eax
  402ca5:	c3                   	retq   

0000000000402ca6 <gencookie>:
  402ca6:	53                   	push   %rbx
  402ca7:	83 c7 01             	add    $0x1,%edi
  402caa:	e8 51 e0 ff ff       	callq  400d00 <srandom@plt>
  402caf:	e8 7c e1 ff ff       	callq  400e30 <random@plt>
  402cb4:	89 c3                	mov    %eax,%ebx
  402cb6:	89 c7                	mov    %eax,%edi
  402cb8:	e8 b7 ff ff ff       	callq  402c74 <check>
  402cbd:	85 c0                	test   %eax,%eax
  402cbf:	74 ee                	je     402caf <gencookie+0x9>
  402cc1:	89 d8                	mov    %ebx,%eax
  402cc3:	5b                   	pop    %rbx
  402cc4:	c3                   	retq   
  402cc5:	66 2e 0f 1f 84 00 00 	nopw   %cs:0x0(%rax,%rax,1)
  402ccc:	00 00 00 
  402ccf:	90                   	nop

0000000000402cd0 <__libc_csu_init>:
  402cd0:	41 57                	push   %r15
  402cd2:	41 89 ff             	mov    %edi,%r15d
  402cd5:	41 56                	push   %r14
  402cd7:	49 89 f6             	mov    %rsi,%r14
  402cda:	41 55                	push   %r13
  402cdc:	49 89 d5             	mov    %rdx,%r13
  402cdf:	41 54                	push   %r12
  402ce1:	4c 8d 25 30 11 20 00 	lea    0x201130(%rip),%r12        # 603e18 <__frame_dummy_init_array_entry>
  402ce8:	55                   	push   %rbp
  402ce9:	48 8d 2d 30 11 20 00 	lea    0x201130(%rip),%rbp        # 603e20 <__init_array_end>
  402cf0:	53                   	push   %rbx
  402cf1:	4c 29 e5             	sub    %r12,%rbp
  402cf4:	31 db                	xor    %ebx,%ebx
  402cf6:	48 c1 fd 03          	sar    $0x3,%rbp
  402cfa:	48 83 ec 08          	sub    $0x8,%rsp
  402cfe:	e8 ad df ff ff       	callq  400cb0 <_init>
  402d03:	48 85 ed             	test   %rbp,%rbp
  402d06:	74 1e                	je     402d26 <__libc_csu_init+0x56>
  402d08:	0f 1f 84 00 00 00 00 	nopl   0x0(%rax,%rax,1)
  402d0f:	00 
  402d10:	4c 89 ea             	mov    %r13,%rdx
  402d13:	4c 89 f6             	mov    %r14,%rsi
  402d16:	44 89 ff             	mov    %r15d,%edi
  402d19:	41 ff 14 dc          	callq  *(%r12,%rbx,8)
  402d1d:	48 83 c3 01          	add    $0x1,%rbx
  402d21:	48 39 eb             	cmp    %rbp,%rbx
  402d24:	75 ea                	jne    402d10 <__libc_csu_init+0x40>
  402d26:	48 83 c4 08          	add    $0x8,%rsp
  402d2a:	5b                   	pop    %rbx
  402d2b:	5d                   	pop    %rbp
  402d2c:	41 5c                	pop    %r12
  402d2e:	41 5d                	pop    %r13
  402d30:	41 5e                	pop    %r14
  402d32:	41 5f                	pop    %r15
  402d34:	c3                   	retq   
  402d35:	90                   	nop
  402d36:	66 2e 0f 1f 84 00 00 	nopw   %cs:0x0(%rax,%rax,1)
  402d3d:	00 00 00 

0000000000402d40 <__libc_csu_fini>:
  402d40:	f3 c3                	repz retq 

Disassembly of section .fini:

0000000000402d44 <_fini>:
  402d44:	48 83 ec 08          	sub    $0x8,%rsp
  402d48:	48 83 c4 08          	add    $0x8,%rsp
  402d4c:	c3                   	retq   
