
rtarget:     file format elf64-x86-64


Disassembly of section .init:

0000000000400cb0 <_init>:
  400cb0:	48 83 ec 08          	sub    $0x8,%rsp
  400cb4:	48 8b 05 3d 43 20 00 	mov    0x20433d(%rip),%rax        # 604ff8 <_DYNAMIC+0x1d0>
  400cbb:	48 85 c0             	test   %rax,%rax
  400cbe:	74 05                	je     400cc5 <_init+0x15>
  400cc0:	e8 2b 01 00 00       	callq  400df0 <__gmon_start__@plt>
  400cc5:	48 83 c4 08          	add    $0x8,%rsp
  400cc9:	c3                   	retq   

Disassembly of section .plt:

0000000000400cd0 <strcasecmp@plt-0x10>:
  400cd0:	ff 35 32 43 20 00    	pushq  0x204332(%rip)        # 605008 <_GLOBAL_OFFSET_TABLE_+0x8>
  400cd6:	ff 25 34 43 20 00    	jmpq   *0x204334(%rip)        # 605010 <_GLOBAL_OFFSET_TABLE_+0x10>
  400cdc:	0f 1f 40 00          	nopl   0x0(%rax)

0000000000400ce0 <strcasecmp@plt>:
  400ce0:	ff 25 32 43 20 00    	jmpq   *0x204332(%rip)        # 605018 <_GLOBAL_OFFSET_TABLE_+0x18>
  400ce6:	68 00 00 00 00       	pushq  $0x0
  400ceb:	e9 e0 ff ff ff       	jmpq   400cd0 <_init+0x20>

0000000000400cf0 <__errno_location@plt>:
  400cf0:	ff 25 2a 43 20 00    	jmpq   *0x20432a(%rip)        # 605020 <_GLOBAL_OFFSET_TABLE_+0x20>
  400cf6:	68 01 00 00 00       	pushq  $0x1
  400cfb:	e9 d0 ff ff ff       	jmpq   400cd0 <_init+0x20>

0000000000400d00 <srandom@plt>:
  400d00:	ff 25 22 43 20 00    	jmpq   *0x204322(%rip)        # 605028 <_GLOBAL_OFFSET_TABLE_+0x28>
  400d06:	68 02 00 00 00       	pushq  $0x2
  400d0b:	e9 c0 ff ff ff       	jmpq   400cd0 <_init+0x20>

0000000000400d10 <strncmp@plt>:
  400d10:	ff 25 1a 43 20 00    	jmpq   *0x20431a(%rip)        # 605030 <_GLOBAL_OFFSET_TABLE_+0x30>
  400d16:	68 03 00 00 00       	pushq  $0x3
  400d1b:	e9 b0 ff ff ff       	jmpq   400cd0 <_init+0x20>

0000000000400d20 <strcpy@plt>:
  400d20:	ff 25 12 43 20 00    	jmpq   *0x204312(%rip)        # 605038 <_GLOBAL_OFFSET_TABLE_+0x38>
  400d26:	68 04 00 00 00       	pushq  $0x4
  400d2b:	e9 a0 ff ff ff       	jmpq   400cd0 <_init+0x20>

0000000000400d30 <puts@plt>:
  400d30:	ff 25 0a 43 20 00    	jmpq   *0x20430a(%rip)        # 605040 <_GLOBAL_OFFSET_TABLE_+0x40>
  400d36:	68 05 00 00 00       	pushq  $0x5
  400d3b:	e9 90 ff ff ff       	jmpq   400cd0 <_init+0x20>

0000000000400d40 <write@plt>:
  400d40:	ff 25 02 43 20 00    	jmpq   *0x204302(%rip)        # 605048 <_GLOBAL_OFFSET_TABLE_+0x48>
  400d46:	68 06 00 00 00       	pushq  $0x6
  400d4b:	e9 80 ff ff ff       	jmpq   400cd0 <_init+0x20>

0000000000400d50 <mmap@plt>:
  400d50:	ff 25 fa 42 20 00    	jmpq   *0x2042fa(%rip)        # 605050 <_GLOBAL_OFFSET_TABLE_+0x50>
  400d56:	68 07 00 00 00       	pushq  $0x7
  400d5b:	e9 70 ff ff ff       	jmpq   400cd0 <_init+0x20>

0000000000400d60 <printf@plt>:
  400d60:	ff 25 f2 42 20 00    	jmpq   *0x2042f2(%rip)        # 605058 <_GLOBAL_OFFSET_TABLE_+0x58>
  400d66:	68 08 00 00 00       	pushq  $0x8
  400d6b:	e9 60 ff ff ff       	jmpq   400cd0 <_init+0x20>

0000000000400d70 <memset@plt>:
  400d70:	ff 25 ea 42 20 00    	jmpq   *0x2042ea(%rip)        # 605060 <_GLOBAL_OFFSET_TABLE_+0x60>
  400d76:	68 09 00 00 00       	pushq  $0x9
  400d7b:	e9 50 ff ff ff       	jmpq   400cd0 <_init+0x20>

0000000000400d80 <alarm@plt>:
  400d80:	ff 25 e2 42 20 00    	jmpq   *0x2042e2(%rip)        # 605068 <_GLOBAL_OFFSET_TABLE_+0x68>
  400d86:	68 0a 00 00 00       	pushq  $0xa
  400d8b:	e9 40 ff ff ff       	jmpq   400cd0 <_init+0x20>

0000000000400d90 <close@plt>:
  400d90:	ff 25 da 42 20 00    	jmpq   *0x2042da(%rip)        # 605070 <_GLOBAL_OFFSET_TABLE_+0x70>
  400d96:	68 0b 00 00 00       	pushq  $0xb
  400d9b:	e9 30 ff ff ff       	jmpq   400cd0 <_init+0x20>

0000000000400da0 <read@plt>:
  400da0:	ff 25 d2 42 20 00    	jmpq   *0x2042d2(%rip)        # 605078 <_GLOBAL_OFFSET_TABLE_+0x78>
  400da6:	68 0c 00 00 00       	pushq  $0xc
  400dab:	e9 20 ff ff ff       	jmpq   400cd0 <_init+0x20>

0000000000400db0 <__libc_start_main@plt>:
  400db0:	ff 25 ca 42 20 00    	jmpq   *0x2042ca(%rip)        # 605080 <_GLOBAL_OFFSET_TABLE_+0x80>
  400db6:	68 0d 00 00 00       	pushq  $0xd
  400dbb:	e9 10 ff ff ff       	jmpq   400cd0 <_init+0x20>

0000000000400dc0 <signal@plt>:
  400dc0:	ff 25 c2 42 20 00    	jmpq   *0x2042c2(%rip)        # 605088 <_GLOBAL_OFFSET_TABLE_+0x88>
  400dc6:	68 0e 00 00 00       	pushq  $0xe
  400dcb:	e9 00 ff ff ff       	jmpq   400cd0 <_init+0x20>

0000000000400dd0 <gethostbyname@plt>:
  400dd0:	ff 25 ba 42 20 00    	jmpq   *0x2042ba(%rip)        # 605090 <_GLOBAL_OFFSET_TABLE_+0x90>
  400dd6:	68 0f 00 00 00       	pushq  $0xf
  400ddb:	e9 f0 fe ff ff       	jmpq   400cd0 <_init+0x20>

0000000000400de0 <fprintf@plt>:
  400de0:	ff 25 b2 42 20 00    	jmpq   *0x2042b2(%rip)        # 605098 <_GLOBAL_OFFSET_TABLE_+0x98>
  400de6:	68 10 00 00 00       	pushq  $0x10
  400deb:	e9 e0 fe ff ff       	jmpq   400cd0 <_init+0x20>

0000000000400df0 <__gmon_start__@plt>:
  400df0:	ff 25 aa 42 20 00    	jmpq   *0x2042aa(%rip)        # 6050a0 <_GLOBAL_OFFSET_TABLE_+0xa0>
  400df6:	68 11 00 00 00       	pushq  $0x11
  400dfb:	e9 d0 fe ff ff       	jmpq   400cd0 <_init+0x20>

0000000000400e00 <strtol@plt>:
  400e00:	ff 25 a2 42 20 00    	jmpq   *0x2042a2(%rip)        # 6050a8 <_GLOBAL_OFFSET_TABLE_+0xa8>
  400e06:	68 12 00 00 00       	pushq  $0x12
  400e0b:	e9 c0 fe ff ff       	jmpq   400cd0 <_init+0x20>

0000000000400e10 <memcpy@plt>:
  400e10:	ff 25 9a 42 20 00    	jmpq   *0x20429a(%rip)        # 6050b0 <_GLOBAL_OFFSET_TABLE_+0xb0>
  400e16:	68 13 00 00 00       	pushq  $0x13
  400e1b:	e9 b0 fe ff ff       	jmpq   400cd0 <_init+0x20>

0000000000400e20 <time@plt>:
  400e20:	ff 25 92 42 20 00    	jmpq   *0x204292(%rip)        # 6050b8 <_GLOBAL_OFFSET_TABLE_+0xb8>
  400e26:	68 14 00 00 00       	pushq  $0x14
  400e2b:	e9 a0 fe ff ff       	jmpq   400cd0 <_init+0x20>

0000000000400e30 <random@plt>:
  400e30:	ff 25 8a 42 20 00    	jmpq   *0x20428a(%rip)        # 6050c0 <_GLOBAL_OFFSET_TABLE_+0xc0>
  400e36:	68 15 00 00 00       	pushq  $0x15
  400e3b:	e9 90 fe ff ff       	jmpq   400cd0 <_init+0x20>

0000000000400e40 <_IO_getc@plt>:
  400e40:	ff 25 82 42 20 00    	jmpq   *0x204282(%rip)        # 6050c8 <_GLOBAL_OFFSET_TABLE_+0xc8>
  400e46:	68 16 00 00 00       	pushq  $0x16
  400e4b:	e9 80 fe ff ff       	jmpq   400cd0 <_init+0x20>

0000000000400e50 <__isoc99_sscanf@plt>:
  400e50:	ff 25 7a 42 20 00    	jmpq   *0x20427a(%rip)        # 6050d0 <_GLOBAL_OFFSET_TABLE_+0xd0>
  400e56:	68 17 00 00 00       	pushq  $0x17
  400e5b:	e9 70 fe ff ff       	jmpq   400cd0 <_init+0x20>

0000000000400e60 <munmap@plt>:
  400e60:	ff 25 72 42 20 00    	jmpq   *0x204272(%rip)        # 6050d8 <_GLOBAL_OFFSET_TABLE_+0xd8>
  400e66:	68 18 00 00 00       	pushq  $0x18
  400e6b:	e9 60 fe ff ff       	jmpq   400cd0 <_init+0x20>

0000000000400e70 <bcopy@plt>:
  400e70:	ff 25 6a 42 20 00    	jmpq   *0x20426a(%rip)        # 6050e0 <_GLOBAL_OFFSET_TABLE_+0xe0>
  400e76:	68 19 00 00 00       	pushq  $0x19
  400e7b:	e9 50 fe ff ff       	jmpq   400cd0 <_init+0x20>

0000000000400e80 <fopen@plt>:
  400e80:	ff 25 62 42 20 00    	jmpq   *0x204262(%rip)        # 6050e8 <_GLOBAL_OFFSET_TABLE_+0xe8>
  400e86:	68 1a 00 00 00       	pushq  $0x1a
  400e8b:	e9 40 fe ff ff       	jmpq   400cd0 <_init+0x20>

0000000000400e90 <getopt@plt>:
  400e90:	ff 25 5a 42 20 00    	jmpq   *0x20425a(%rip)        # 6050f0 <_GLOBAL_OFFSET_TABLE_+0xf0>
  400e96:	68 1b 00 00 00       	pushq  $0x1b
  400e9b:	e9 30 fe ff ff       	jmpq   400cd0 <_init+0x20>

0000000000400ea0 <strtoul@plt>:
  400ea0:	ff 25 52 42 20 00    	jmpq   *0x204252(%rip)        # 6050f8 <_GLOBAL_OFFSET_TABLE_+0xf8>
  400ea6:	68 1c 00 00 00       	pushq  $0x1c
  400eab:	e9 20 fe ff ff       	jmpq   400cd0 <_init+0x20>

0000000000400eb0 <gethostname@plt>:
  400eb0:	ff 25 4a 42 20 00    	jmpq   *0x20424a(%rip)        # 605100 <_GLOBAL_OFFSET_TABLE_+0x100>
  400eb6:	68 1d 00 00 00       	pushq  $0x1d
  400ebb:	e9 10 fe ff ff       	jmpq   400cd0 <_init+0x20>

0000000000400ec0 <sprintf@plt>:
  400ec0:	ff 25 42 42 20 00    	jmpq   *0x204242(%rip)        # 605108 <_GLOBAL_OFFSET_TABLE_+0x108>
  400ec6:	68 1e 00 00 00       	pushq  $0x1e
  400ecb:	e9 00 fe ff ff       	jmpq   400cd0 <_init+0x20>

0000000000400ed0 <exit@plt>:
  400ed0:	ff 25 3a 42 20 00    	jmpq   *0x20423a(%rip)        # 605110 <_GLOBAL_OFFSET_TABLE_+0x110>
  400ed6:	68 1f 00 00 00       	pushq  $0x1f
  400edb:	e9 f0 fd ff ff       	jmpq   400cd0 <_init+0x20>

0000000000400ee0 <connect@plt>:
  400ee0:	ff 25 32 42 20 00    	jmpq   *0x204232(%rip)        # 605118 <_GLOBAL_OFFSET_TABLE_+0x118>
  400ee6:	68 20 00 00 00       	pushq  $0x20
  400eeb:	e9 e0 fd ff ff       	jmpq   400cd0 <_init+0x20>

0000000000400ef0 <socket@plt>:
  400ef0:	ff 25 2a 42 20 00    	jmpq   *0x20422a(%rip)        # 605120 <_GLOBAL_OFFSET_TABLE_+0x120>
  400ef6:	68 21 00 00 00       	pushq  $0x21
  400efb:	e9 d0 fd ff ff       	jmpq   400cd0 <_init+0x20>

Disassembly of section .text:

0000000000400f00 <_start>:
  400f00:	31 ed                	xor    %ebp,%ebp
  400f02:	49 89 d1             	mov    %rdx,%r9
  400f05:	5e                   	pop    %rsi
  400f06:	48 89 e2             	mov    %rsp,%rdx
  400f09:	48 83 e4 f0          	and    $0xfffffffffffffff0,%rsp
  400f0d:	50                   	push   %rax
  400f0e:	54                   	push   %rsp
  400f0f:	49 c7 c0 60 2e 40 00 	mov    $0x402e60,%r8
  400f16:	48 c7 c1 f0 2d 40 00 	mov    $0x402df0,%rcx
  400f1d:	48 c7 c7 a0 11 40 00 	mov    $0x4011a0,%rdi
  400f24:	e8 87 fe ff ff       	callq  400db0 <__libc_start_main@plt>
  400f29:	f4                   	hlt    
  400f2a:	66 0f 1f 44 00 00    	nopw   0x0(%rax,%rax,1)

0000000000400f30 <deregister_tm_clones>:
  400f30:	55                   	push   %rbp
  400f31:	b8 b0 54 60 00       	mov    $0x6054b0,%eax
  400f36:	48 3d b0 54 60 00    	cmp    $0x6054b0,%rax
  400f3c:	48 89 e5             	mov    %rsp,%rbp
  400f3f:	74 17                	je     400f58 <deregister_tm_clones+0x28>
  400f41:	b8 00 00 00 00       	mov    $0x0,%eax
  400f46:	48 85 c0             	test   %rax,%rax
  400f49:	74 0d                	je     400f58 <deregister_tm_clones+0x28>
  400f4b:	5d                   	pop    %rbp
  400f4c:	bf b0 54 60 00       	mov    $0x6054b0,%edi
  400f51:	ff e0                	jmpq   *%rax
  400f53:	0f 1f 44 00 00       	nopl   0x0(%rax,%rax,1)
  400f58:	5d                   	pop    %rbp
  400f59:	c3                   	retq   
  400f5a:	66 0f 1f 44 00 00    	nopw   0x0(%rax,%rax,1)

0000000000400f60 <register_tm_clones>:
  400f60:	be b0 54 60 00       	mov    $0x6054b0,%esi
  400f65:	55                   	push   %rbp
  400f66:	48 81 ee b0 54 60 00 	sub    $0x6054b0,%rsi
  400f6d:	48 89 e5             	mov    %rsp,%rbp
  400f70:	48 c1 fe 03          	sar    $0x3,%rsi
  400f74:	48 89 f0             	mov    %rsi,%rax
  400f77:	48 c1 e8 3f          	shr    $0x3f,%rax
  400f7b:	48 01 c6             	add    %rax,%rsi
  400f7e:	48 d1 fe             	sar    %rsi
  400f81:	74 15                	je     400f98 <register_tm_clones+0x38>
  400f83:	b8 00 00 00 00       	mov    $0x0,%eax
  400f88:	48 85 c0             	test   %rax,%rax
  400f8b:	74 0b                	je     400f98 <register_tm_clones+0x38>
  400f8d:	5d                   	pop    %rbp
  400f8e:	bf b0 54 60 00       	mov    $0x6054b0,%edi
  400f93:	ff e0                	jmpq   *%rax
  400f95:	0f 1f 00             	nopl   (%rax)
  400f98:	5d                   	pop    %rbp
  400f99:	c3                   	retq   
  400f9a:	66 0f 1f 44 00 00    	nopw   0x0(%rax,%rax,1)

0000000000400fa0 <__do_global_dtors_aux>:
  400fa0:	80 3d 31 45 20 00 00 	cmpb   $0x0,0x204531(%rip)        # 6054d8 <completed.6940>
  400fa7:	75 17                	jne    400fc0 <__do_global_dtors_aux+0x20>
  400fa9:	55                   	push   %rbp
  400faa:	48 89 e5             	mov    %rsp,%rbp
  400fad:	e8 7e ff ff ff       	callq  400f30 <deregister_tm_clones>
  400fb2:	c6 05 1f 45 20 00 01 	movb   $0x1,0x20451f(%rip)        # 6054d8 <completed.6940>
  400fb9:	5d                   	pop    %rbp
  400fba:	c3                   	retq   
  400fbb:	0f 1f 44 00 00       	nopl   0x0(%rax,%rax,1)
  400fc0:	f3 c3                	repz retq 
  400fc2:	0f 1f 40 00          	nopl   0x0(%rax)
  400fc6:	66 2e 0f 1f 84 00 00 	nopw   %cs:0x0(%rax,%rax,1)
  400fcd:	00 00 00 

0000000000400fd0 <frame_dummy>:
  400fd0:	55                   	push   %rbp
  400fd1:	48 89 e5             	mov    %rsp,%rbp
  400fd4:	5d                   	pop    %rbp
  400fd5:	eb 89                	jmp    400f60 <register_tm_clones>

0000000000400fd7 <usage>:
  400fd7:	48 83 ec 08          	sub    $0x8,%rsp
  400fdb:	48 89 fe             	mov    %rdi,%rsi
  400fde:	83 3d 23 45 20 00 00 	cmpl   $0x0,0x204523(%rip)        # 605508 <is_checker>
  400fe5:	74 41                	je     401028 <usage+0x51>
  400fe7:	bf 78 2e 40 00       	mov    $0x402e78,%edi
  400fec:	b8 00 00 00 00       	mov    $0x0,%eax
  400ff1:	e8 6a fd ff ff       	callq  400d60 <printf@plt>
  400ff6:	bf b0 2e 40 00       	mov    $0x402eb0,%edi
  400ffb:	e8 30 fd ff ff       	callq  400d30 <puts@plt>
  401000:	bf 28 30 40 00       	mov    $0x403028,%edi
  401005:	e8 26 fd ff ff       	callq  400d30 <puts@plt>
  40100a:	bf d8 2e 40 00       	mov    $0x402ed8,%edi
  40100f:	e8 1c fd ff ff       	callq  400d30 <puts@plt>
  401014:	bf 42 30 40 00       	mov    $0x403042,%edi
  401019:	e8 12 fd ff ff       	callq  400d30 <puts@plt>
  40101e:	bf 00 00 00 00       	mov    $0x0,%edi
  401023:	e8 a8 fe ff ff       	callq  400ed0 <exit@plt>
  401028:	bf 5e 30 40 00       	mov    $0x40305e,%edi
  40102d:	b8 00 00 00 00       	mov    $0x0,%eax
  401032:	e8 29 fd ff ff       	callq  400d60 <printf@plt>
  401037:	bf 00 2f 40 00       	mov    $0x402f00,%edi
  40103c:	e8 ef fc ff ff       	callq  400d30 <puts@plt>
  401041:	bf 28 2f 40 00       	mov    $0x402f28,%edi
  401046:	e8 e5 fc ff ff       	callq  400d30 <puts@plt>
  40104b:	bf 7c 30 40 00       	mov    $0x40307c,%edi
  401050:	e8 db fc ff ff       	callq  400d30 <puts@plt>
  401055:	eb c7                	jmp    40101e <usage+0x47>

0000000000401057 <initialize_target>:
  401057:	55                   	push   %rbp
  401058:	53                   	push   %rbx
  401059:	48 81 ec 08 21 00 00 	sub    $0x2108,%rsp
  401060:	89 f5                	mov    %esi,%ebp
  401062:	89 3d 90 44 20 00    	mov    %edi,0x204490(%rip)        # 6054f8 <check_level>
  401068:	8b 3d fa 40 20 00    	mov    0x2040fa(%rip),%edi        # 605168 <target_id>
  40106e:	e8 53 1d 00 00       	callq  402dc6 <gencookie>
  401073:	89 05 8b 44 20 00    	mov    %eax,0x20448b(%rip)        # 605504 <cookie>
  401079:	89 c7                	mov    %eax,%edi
  40107b:	e8 46 1d 00 00       	callq  402dc6 <gencookie>
  401080:	89 05 7a 44 20 00    	mov    %eax,0x20447a(%rip)        # 605500 <authkey>
  401086:	8b 05 dc 40 20 00    	mov    0x2040dc(%rip),%eax        # 605168 <target_id>
  40108c:	8d 78 01             	lea    0x1(%rax),%edi
  40108f:	e8 6c fc ff ff       	callq  400d00 <srandom@plt>
  401094:	e8 97 fd ff ff       	callq  400e30 <random@plt>
  401099:	89 c7                	mov    %eax,%edi
  40109b:	e8 b8 02 00 00       	callq  401358 <scramble>
  4010a0:	89 c3                	mov    %eax,%ebx
  4010a2:	85 ed                	test   %ebp,%ebp
  4010a4:	75 3d                	jne    4010e3 <initialize_target+0x8c>
  4010a6:	b8 00 00 00 00       	mov    $0x0,%eax
  4010ab:	01 d8                	add    %ebx,%eax
  4010ad:	0f b7 c0             	movzwl %ax,%eax
  4010b0:	8d 04 c5 00 01 00 00 	lea    0x100(,%rax,8),%eax
  4010b7:	89 c0                	mov    %eax,%eax
  4010b9:	48 89 05 e0 43 20 00 	mov    %rax,0x2043e0(%rip)        # 6054a0 <buf_offset>
  4010c0:	c6 05 61 50 20 00 72 	movb   $0x72,0x205061(%rip)        # 606128 <target_prefix>
  4010c7:	83 3d da 43 20 00 00 	cmpl   $0x0,0x2043da(%rip)        # 6054a8 <notify>
  4010ce:	74 09                	je     4010d9 <initialize_target+0x82>
  4010d0:	83 3d 31 44 20 00 00 	cmpl   $0x0,0x204431(%rip)        # 605508 <is_checker>
  4010d7:	74 22                	je     4010fb <initialize_target+0xa4>
  4010d9:	48 81 c4 08 21 00 00 	add    $0x2108,%rsp
  4010e0:	5b                   	pop    %rbx
  4010e1:	5d                   	pop    %rbp
  4010e2:	c3                   	retq   
  4010e3:	bf 00 00 00 00       	mov    $0x0,%edi
  4010e8:	e8 33 fd ff ff       	callq  400e20 <time@plt>
  4010ed:	89 c7                	mov    %eax,%edi
  4010ef:	e8 0c fc ff ff       	callq  400d00 <srandom@plt>
  4010f4:	e8 37 fd ff ff       	callq  400e30 <random@plt>
  4010f9:	eb b0                	jmp    4010ab <initialize_target+0x54>
  4010fb:	be 00 01 00 00       	mov    $0x100,%esi
  401100:	48 89 e7             	mov    %rsp,%rdi
  401103:	e8 a8 fd ff ff       	callq  400eb0 <gethostname@plt>
  401108:	89 c5                	mov    %eax,%ebp
  40110a:	85 c0                	test   %eax,%eax
  40110c:	75 23                	jne    401131 <initialize_target+0xda>
  40110e:	89 c3                	mov    %eax,%ebx
  401110:	48 63 c3             	movslq %ebx,%rax
  401113:	48 8b 3c c5 80 51 60 	mov    0x605180(,%rax,8),%rdi
  40111a:	00 
  40111b:	48 85 ff             	test   %rdi,%rdi
  40111e:	74 2a                	je     40114a <initialize_target+0xf3>
  401120:	48 89 e6             	mov    %rsp,%rsi
  401123:	e8 b8 fb ff ff       	callq  400ce0 <strcasecmp@plt>
  401128:	85 c0                	test   %eax,%eax
  40112a:	74 19                	je     401145 <initialize_target+0xee>
  40112c:	83 c3 01             	add    $0x1,%ebx
  40112f:	eb df                	jmp    401110 <initialize_target+0xb9>
  401131:	bf 58 2f 40 00       	mov    $0x402f58,%edi
  401136:	e8 f5 fb ff ff       	callq  400d30 <puts@plt>
  40113b:	bf 08 00 00 00       	mov    $0x8,%edi
  401140:	e8 8b fd ff ff       	callq  400ed0 <exit@plt>
  401145:	bd 01 00 00 00       	mov    $0x1,%ebp
  40114a:	85 ed                	test   %ebp,%ebp
  40114c:	74 36                	je     401184 <initialize_target+0x12d>
  40114e:	48 8d bc 24 00 01 00 	lea    0x100(%rsp),%rdi
  401155:	00 
  401156:	e8 fe 19 00 00       	callq  402b59 <init_driver>
  40115b:	85 c0                	test   %eax,%eax
  40115d:	0f 89 76 ff ff ff    	jns    4010d9 <initialize_target+0x82>
  401163:	48 8d b4 24 00 01 00 	lea    0x100(%rsp),%rsi
  40116a:	00 
  40116b:	bf d0 2f 40 00       	mov    $0x402fd0,%edi
  401170:	b8 00 00 00 00       	mov    $0x0,%eax
  401175:	e8 e6 fb ff ff       	callq  400d60 <printf@plt>
  40117a:	bf 08 00 00 00       	mov    $0x8,%edi
  40117f:	e8 4c fd ff ff       	callq  400ed0 <exit@plt>
  401184:	48 89 e6             	mov    %rsp,%rsi
  401187:	bf 90 2f 40 00       	mov    $0x402f90,%edi
  40118c:	b8 00 00 00 00       	mov    $0x0,%eax
  401191:	e8 ca fb ff ff       	callq  400d60 <printf@plt>
  401196:	bf 08 00 00 00       	mov    $0x8,%edi
  40119b:	e8 30 fd ff ff       	callq  400ed0 <exit@plt>

00000000004011a0 <main>:
  4011a0:	41 56                	push   %r14
  4011a2:	41 55                	push   %r13
  4011a4:	41 54                	push   %r12
  4011a6:	55                   	push   %rbp
  4011a7:	53                   	push   %rbx
  4011a8:	41 89 fc             	mov    %edi,%r12d
  4011ab:	48 89 f3             	mov    %rsi,%rbx
  4011ae:	be 41 1f 40 00       	mov    $0x401f41,%esi
  4011b3:	bf 0b 00 00 00       	mov    $0xb,%edi
  4011b8:	e8 03 fc ff ff       	callq  400dc0 <signal@plt>
  4011bd:	be f3 1e 40 00       	mov    $0x401ef3,%esi
  4011c2:	bf 07 00 00 00       	mov    $0x7,%edi
  4011c7:	e8 f4 fb ff ff       	callq  400dc0 <signal@plt>
  4011cc:	be 8f 1f 40 00       	mov    $0x401f8f,%esi
  4011d1:	bf 04 00 00 00       	mov    $0x4,%edi
  4011d6:	e8 e5 fb ff ff       	callq  400dc0 <signal@plt>
  4011db:	83 3d 26 43 20 00 00 	cmpl   $0x0,0x204326(%rip)        # 605508 <is_checker>
  4011e2:	75 24                	jne    401208 <main+0x68>
  4011e4:	bd 95 30 40 00       	mov    $0x403095,%ebp
  4011e9:	48 8b 05 d0 42 20 00 	mov    0x2042d0(%rip),%rax        # 6054c0 <stdin@@GLIBC_2.2.5>
  4011f0:	48 89 05 f9 42 20 00 	mov    %rax,0x2042f9(%rip)        # 6054f0 <infile>
  4011f7:	41 bd 00 00 00 00    	mov    $0x0,%r13d
  4011fd:	41 be 00 00 00 00    	mov    $0x0,%r14d
  401203:	e9 80 00 00 00       	jmpq   401288 <main+0xe8>
  401208:	be dd 1f 40 00       	mov    $0x401fdd,%esi
  40120d:	bf 0e 00 00 00       	mov    $0xe,%edi
  401212:	e8 a9 fb ff ff       	callq  400dc0 <signal@plt>
  401217:	bf 05 00 00 00       	mov    $0x5,%edi
  40121c:	e8 5f fb ff ff       	callq  400d80 <alarm@plt>
  401221:	bd 9a 30 40 00       	mov    $0x40309a,%ebp
  401226:	eb c1                	jmp    4011e9 <main+0x49>
  401228:	48 8b 3b             	mov    (%rbx),%rdi
  40122b:	e8 a7 fd ff ff       	callq  400fd7 <usage>
  401230:	be fd 33 40 00       	mov    $0x4033fd,%esi
  401235:	48 8b 3d 8c 42 20 00 	mov    0x20428c(%rip),%rdi        # 6054c8 <optarg@@GLIBC_2.2.5>
  40123c:	e8 3f fc ff ff       	callq  400e80 <fopen@plt>
  401241:	48 89 05 a8 42 20 00 	mov    %rax,0x2042a8(%rip)        # 6054f0 <infile>
  401248:	48 85 c0             	test   %rax,%rax
  40124b:	75 3b                	jne    401288 <main+0xe8>
  40124d:	48 8b 15 74 42 20 00 	mov    0x204274(%rip),%rdx        # 6054c8 <optarg@@GLIBC_2.2.5>
  401254:	be a2 30 40 00       	mov    $0x4030a2,%esi
  401259:	48 8b 3d 70 42 20 00 	mov    0x204270(%rip),%rdi        # 6054d0 <stderr@@GLIBC_2.2.5>
  401260:	e8 7b fb ff ff       	callq  400de0 <fprintf@plt>
  401265:	b8 01 00 00 00       	mov    $0x1,%eax
  40126a:	e9 c2 00 00 00       	jmpq   401331 <main+0x191>
  40126f:	ba 10 00 00 00       	mov    $0x10,%edx
  401274:	be 00 00 00 00       	mov    $0x0,%esi
  401279:	48 8b 3d 48 42 20 00 	mov    0x204248(%rip),%rdi        # 6054c8 <optarg@@GLIBC_2.2.5>
  401280:	e8 1b fc ff ff       	callq  400ea0 <strtoul@plt>
  401285:	41 89 c6             	mov    %eax,%r14d
  401288:	48 89 ea             	mov    %rbp,%rdx
  40128b:	48 89 de             	mov    %rbx,%rsi
  40128e:	44 89 e7             	mov    %r12d,%edi
  401291:	e8 fa fb ff ff       	callq  400e90 <getopt@plt>
  401296:	3c ff                	cmp    $0xff,%al
  401298:	74 52                	je     4012ec <main+0x14c>
  40129a:	0f be f0             	movsbl %al,%esi
  40129d:	83 e8 61             	sub    $0x61,%eax
  4012a0:	3c 10                	cmp    $0x10,%al
  4012a2:	77 31                	ja     4012d5 <main+0x135>
  4012a4:	0f b6 c0             	movzbl %al,%eax
  4012a7:	ff 24 c5 e0 30 40 00 	jmpq   *0x4030e0(,%rax,8)
  4012ae:	ba 0a 00 00 00       	mov    $0xa,%edx
  4012b3:	be 00 00 00 00       	mov    $0x0,%esi
  4012b8:	48 8b 3d 09 42 20 00 	mov    0x204209(%rip),%rdi        # 6054c8 <optarg@@GLIBC_2.2.5>
  4012bf:	e8 3c fb ff ff       	callq  400e00 <strtol@plt>
  4012c4:	41 89 c5             	mov    %eax,%r13d
  4012c7:	eb bf                	jmp    401288 <main+0xe8>
  4012c9:	c7 05 d5 41 20 00 00 	movl   $0x0,0x2041d5(%rip)        # 6054a8 <notify>
  4012d0:	00 00 00 
  4012d3:	eb b3                	jmp    401288 <main+0xe8>
  4012d5:	bf bf 30 40 00       	mov    $0x4030bf,%edi
  4012da:	b8 00 00 00 00       	mov    $0x0,%eax
  4012df:	e8 7c fa ff ff       	callq  400d60 <printf@plt>
  4012e4:	48 8b 3b             	mov    (%rbx),%rdi
  4012e7:	e8 eb fc ff ff       	callq  400fd7 <usage>
  4012ec:	be 01 00 00 00       	mov    $0x1,%esi
  4012f1:	44 89 ef             	mov    %r13d,%edi
  4012f4:	e8 5e fd ff ff       	callq  401057 <initialize_target>
  4012f9:	83 3d 08 42 20 00 00 	cmpl   $0x0,0x204208(%rip)        # 605508 <is_checker>
  401300:	74 09                	je     40130b <main+0x16b>
  401302:	44 39 35 f7 41 20 00 	cmp    %r14d,0x2041f7(%rip)        # 605500 <authkey>
  401309:	75 2f                	jne    40133a <main+0x19a>
  40130b:	8b 35 f3 41 20 00    	mov    0x2041f3(%rip),%esi        # 605504 <cookie>
  401311:	bf d2 30 40 00       	mov    $0x4030d2,%edi
  401316:	b8 00 00 00 00       	mov    $0x0,%eax
  40131b:	e8 40 fa ff ff       	callq  400d60 <printf@plt>
  401320:	48 8b 3d 79 41 20 00 	mov    0x204179(%rip),%rdi        # 6054a0 <buf_offset>
  401327:	e8 ff 0c 00 00       	callq  40202b <launch>
  40132c:	b8 00 00 00 00       	mov    $0x0,%eax
  401331:	5b                   	pop    %rbx
  401332:	5d                   	pop    %rbp
  401333:	41 5c                	pop    %r12
  401335:	41 5d                	pop    %r13
  401337:	41 5e                	pop    %r14
  401339:	c3                   	retq   
  40133a:	44 89 f6             	mov    %r14d,%esi
  40133d:	bf f8 2f 40 00       	mov    $0x402ff8,%edi
  401342:	b8 00 00 00 00       	mov    $0x0,%eax
  401347:	e8 14 fa ff ff       	callq  400d60 <printf@plt>
  40134c:	b8 00 00 00 00       	mov    $0x0,%eax
  401351:	e8 99 08 00 00       	callq  401bef <check_fail>
  401356:	eb b3                	jmp    40130b <main+0x16b>

0000000000401358 <scramble>:
  401358:	b8 00 00 00 00       	mov    $0x0,%eax
  40135d:	eb 11                	jmp    401370 <scramble+0x18>
  40135f:	69 d0 51 04 00 00    	imul   $0x451,%eax,%edx
  401365:	01 fa                	add    %edi,%edx
  401367:	89 c1                	mov    %eax,%ecx
  401369:	89 54 8c d0          	mov    %edx,-0x30(%rsp,%rcx,4)
  40136d:	83 c0 01             	add    $0x1,%eax
  401370:	83 f8 09             	cmp    $0x9,%eax
  401373:	76 ea                	jbe    40135f <scramble+0x7>
  401375:	8b 44 24 f0          	mov    -0x10(%rsp),%eax
  401379:	69 c0 53 48 00 00    	imul   $0x4853,%eax,%eax
  40137f:	89 44 24 f0          	mov    %eax,-0x10(%rsp)
  401383:	8b 44 24 f4          	mov    -0xc(%rsp),%eax
  401387:	69 c0 eb 85 00 00    	imul   $0x85eb,%eax,%eax
  40138d:	89 44 24 f4          	mov    %eax,-0xc(%rsp)
  401391:	8b 44 24 d0          	mov    -0x30(%rsp),%eax
  401395:	69 c0 37 ac 00 00    	imul   $0xac37,%eax,%eax
  40139b:	89 44 24 d0          	mov    %eax,-0x30(%rsp)
  40139f:	8b 44 24 dc          	mov    -0x24(%rsp),%eax
  4013a3:	69 c0 bf 15 00 00    	imul   $0x15bf,%eax,%eax
  4013a9:	89 44 24 dc          	mov    %eax,-0x24(%rsp)
  4013ad:	8b 44 24 e4          	mov    -0x1c(%rsp),%eax
  4013b1:	69 c0 e7 91 00 00    	imul   $0x91e7,%eax,%eax
  4013b7:	89 44 24 e4          	mov    %eax,-0x1c(%rsp)
  4013bb:	8b 44 24 dc          	mov    -0x24(%rsp),%eax
  4013bf:	69 c0 3b c6 00 00    	imul   $0xc63b,%eax,%eax
  4013c5:	89 44 24 dc          	mov    %eax,-0x24(%rsp)
  4013c9:	8b 44 24 e4          	mov    -0x1c(%rsp),%eax
  4013cd:	69 c0 df 4f 00 00    	imul   $0x4fdf,%eax,%eax
  4013d3:	89 44 24 e4          	mov    %eax,-0x1c(%rsp)
  4013d7:	8b 44 24 f4          	mov    -0xc(%rsp),%eax
  4013db:	69 c0 3a 01 00 00    	imul   $0x13a,%eax,%eax
  4013e1:	89 44 24 f4          	mov    %eax,-0xc(%rsp)
  4013e5:	8b 44 24 d8          	mov    -0x28(%rsp),%eax
  4013e9:	69 c0 4f 46 00 00    	imul   $0x464f,%eax,%eax
  4013ef:	89 44 24 d8          	mov    %eax,-0x28(%rsp)
  4013f3:	8b 44 24 e0          	mov    -0x20(%rsp),%eax
  4013f7:	69 c0 81 cc 00 00    	imul   $0xcc81,%eax,%eax
  4013fd:	89 44 24 e0          	mov    %eax,-0x20(%rsp)
  401401:	8b 44 24 d0          	mov    -0x30(%rsp),%eax
  401405:	69 c0 17 16 00 00    	imul   $0x1617,%eax,%eax
  40140b:	89 44 24 d0          	mov    %eax,-0x30(%rsp)
  40140f:	8b 44 24 dc          	mov    -0x24(%rsp),%eax
  401413:	69 c0 a1 84 00 00    	imul   $0x84a1,%eax,%eax
  401419:	89 44 24 dc          	mov    %eax,-0x24(%rsp)
  40141d:	8b 44 24 d4          	mov    -0x2c(%rsp),%eax
  401421:	69 c0 2d 73 00 00    	imul   $0x732d,%eax,%eax
  401427:	89 44 24 d4          	mov    %eax,-0x2c(%rsp)
  40142b:	8b 44 24 d8          	mov    -0x28(%rsp),%eax
  40142f:	69 c0 d0 20 00 00    	imul   $0x20d0,%eax,%eax
  401435:	89 44 24 d8          	mov    %eax,-0x28(%rsp)
  401439:	8b 44 24 e0          	mov    -0x20(%rsp),%eax
  40143d:	69 c0 c6 77 00 00    	imul   $0x77c6,%eax,%eax
  401443:	89 44 24 e0          	mov    %eax,-0x20(%rsp)
  401447:	8b 44 24 d4          	mov    -0x2c(%rsp),%eax
  40144b:	69 c0 17 42 00 00    	imul   $0x4217,%eax,%eax
  401451:	89 44 24 d4          	mov    %eax,-0x2c(%rsp)
  401455:	8b 44 24 d4          	mov    -0x2c(%rsp),%eax
  401459:	69 c0 ce 6f 00 00    	imul   $0x6fce,%eax,%eax
  40145f:	89 44 24 d4          	mov    %eax,-0x2c(%rsp)
  401463:	8b 44 24 e8          	mov    -0x18(%rsp),%eax
  401467:	69 c0 03 d6 00 00    	imul   $0xd603,%eax,%eax
  40146d:	89 44 24 e8          	mov    %eax,-0x18(%rsp)
  401471:	8b 44 24 d8          	mov    -0x28(%rsp),%eax
  401475:	69 c0 15 af 00 00    	imul   $0xaf15,%eax,%eax
  40147b:	89 44 24 d8          	mov    %eax,-0x28(%rsp)
  40147f:	8b 44 24 d0          	mov    -0x30(%rsp),%eax
  401483:	69 c0 e5 6c 00 00    	imul   $0x6ce5,%eax,%eax
  401489:	89 44 24 d0          	mov    %eax,-0x30(%rsp)
  40148d:	8b 44 24 d0          	mov    -0x30(%rsp),%eax
  401491:	69 c0 91 c9 00 00    	imul   $0xc991,%eax,%eax
  401497:	89 44 24 d0          	mov    %eax,-0x30(%rsp)
  40149b:	8b 44 24 f4          	mov    -0xc(%rsp),%eax
  40149f:	69 c0 bf b0 00 00    	imul   $0xb0bf,%eax,%eax
  4014a5:	89 44 24 f4          	mov    %eax,-0xc(%rsp)
  4014a9:	8b 44 24 d0          	mov    -0x30(%rsp),%eax
  4014ad:	69 c0 c1 55 00 00    	imul   $0x55c1,%eax,%eax
  4014b3:	89 44 24 d0          	mov    %eax,-0x30(%rsp)
  4014b7:	8b 44 24 e0          	mov    -0x20(%rsp),%eax
  4014bb:	69 c0 2c ae 00 00    	imul   $0xae2c,%eax,%eax
  4014c1:	89 44 24 e0          	mov    %eax,-0x20(%rsp)
  4014c5:	8b 44 24 f4          	mov    -0xc(%rsp),%eax
  4014c9:	69 c0 8e 1c 00 00    	imul   $0x1c8e,%eax,%eax
  4014cf:	89 44 24 f4          	mov    %eax,-0xc(%rsp)
  4014d3:	8b 44 24 dc          	mov    -0x24(%rsp),%eax
  4014d7:	69 c0 0b de 00 00    	imul   $0xde0b,%eax,%eax
  4014dd:	89 44 24 dc          	mov    %eax,-0x24(%rsp)
  4014e1:	8b 44 24 e8          	mov    -0x18(%rsp),%eax
  4014e5:	69 c0 a1 0c 00 00    	imul   $0xca1,%eax,%eax
  4014eb:	89 44 24 e8          	mov    %eax,-0x18(%rsp)
  4014ef:	8b 44 24 dc          	mov    -0x24(%rsp),%eax
  4014f3:	69 c0 ba a0 00 00    	imul   $0xa0ba,%eax,%eax
  4014f9:	89 44 24 dc          	mov    %eax,-0x24(%rsp)
  4014fd:	8b 44 24 ec          	mov    -0x14(%rsp),%eax
  401501:	69 c0 8f 25 00 00    	imul   $0x258f,%eax,%eax
  401507:	89 44 24 ec          	mov    %eax,-0x14(%rsp)
  40150b:	8b 44 24 ec          	mov    -0x14(%rsp),%eax
  40150f:	69 c0 95 bd 00 00    	imul   $0xbd95,%eax,%eax
  401515:	89 44 24 ec          	mov    %eax,-0x14(%rsp)
  401519:	8b 44 24 e8          	mov    -0x18(%rsp),%eax
  40151d:	69 c0 7d 24 00 00    	imul   $0x247d,%eax,%eax
  401523:	89 44 24 e8          	mov    %eax,-0x18(%rsp)
  401527:	8b 44 24 e8          	mov    -0x18(%rsp),%eax
  40152b:	69 c0 6f 5d 00 00    	imul   $0x5d6f,%eax,%eax
  401531:	89 44 24 e8          	mov    %eax,-0x18(%rsp)
  401535:	8b 44 24 d8          	mov    -0x28(%rsp),%eax
  401539:	69 c0 af c7 00 00    	imul   $0xc7af,%eax,%eax
  40153f:	89 44 24 d8          	mov    %eax,-0x28(%rsp)
  401543:	8b 44 24 d0          	mov    -0x30(%rsp),%eax
  401547:	69 c0 52 b0 00 00    	imul   $0xb052,%eax,%eax
  40154d:	89 44 24 d0          	mov    %eax,-0x30(%rsp)
  401551:	8b 44 24 d4          	mov    -0x2c(%rsp),%eax
  401555:	69 c0 34 1f 00 00    	imul   $0x1f34,%eax,%eax
  40155b:	89 44 24 d4          	mov    %eax,-0x2c(%rsp)
  40155f:	8b 44 24 dc          	mov    -0x24(%rsp),%eax
  401563:	69 c0 c1 b7 00 00    	imul   $0xb7c1,%eax,%eax
  401569:	89 44 24 dc          	mov    %eax,-0x24(%rsp)
  40156d:	8b 44 24 f0          	mov    -0x10(%rsp),%eax
  401571:	69 c0 57 50 00 00    	imul   $0x5057,%eax,%eax
  401577:	89 44 24 f0          	mov    %eax,-0x10(%rsp)
  40157b:	8b 44 24 f4          	mov    -0xc(%rsp),%eax
  40157f:	69 c0 36 02 00 00    	imul   $0x236,%eax,%eax
  401585:	89 44 24 f4          	mov    %eax,-0xc(%rsp)
  401589:	8b 44 24 d8          	mov    -0x28(%rsp),%eax
  40158d:	69 c0 7a 1a 00 00    	imul   $0x1a7a,%eax,%eax
  401593:	89 44 24 d8          	mov    %eax,-0x28(%rsp)
  401597:	8b 44 24 d8          	mov    -0x28(%rsp),%eax
  40159b:	69 c0 29 42 00 00    	imul   $0x4229,%eax,%eax
  4015a1:	89 44 24 d8          	mov    %eax,-0x28(%rsp)
  4015a5:	8b 44 24 e0          	mov    -0x20(%rsp),%eax
  4015a9:	69 c0 0f 2b 00 00    	imul   $0x2b0f,%eax,%eax
  4015af:	89 44 24 e0          	mov    %eax,-0x20(%rsp)
  4015b3:	8b 44 24 d4          	mov    -0x2c(%rsp),%eax
  4015b7:	69 c0 ae 69 00 00    	imul   $0x69ae,%eax,%eax
  4015bd:	89 44 24 d4          	mov    %eax,-0x2c(%rsp)
  4015c1:	8b 44 24 e0          	mov    -0x20(%rsp),%eax
  4015c5:	69 c0 e1 82 00 00    	imul   $0x82e1,%eax,%eax
  4015cb:	89 44 24 e0          	mov    %eax,-0x20(%rsp)
  4015cf:	8b 44 24 d8          	mov    -0x28(%rsp),%eax
  4015d3:	69 c0 80 b7 00 00    	imul   $0xb780,%eax,%eax
  4015d9:	89 44 24 d8          	mov    %eax,-0x28(%rsp)
  4015dd:	8b 44 24 d4          	mov    -0x2c(%rsp),%eax
  4015e1:	69 c0 f3 cb 00 00    	imul   $0xcbf3,%eax,%eax
  4015e7:	89 44 24 d4          	mov    %eax,-0x2c(%rsp)
  4015eb:	8b 44 24 dc          	mov    -0x24(%rsp),%eax
  4015ef:	69 c0 c6 45 00 00    	imul   $0x45c6,%eax,%eax
  4015f5:	89 44 24 dc          	mov    %eax,-0x24(%rsp)
  4015f9:	8b 44 24 f4          	mov    -0xc(%rsp),%eax
  4015fd:	69 c0 c1 74 00 00    	imul   $0x74c1,%eax,%eax
  401603:	89 44 24 f4          	mov    %eax,-0xc(%rsp)
  401607:	8b 44 24 ec          	mov    -0x14(%rsp),%eax
  40160b:	69 c0 bd 84 00 00    	imul   $0x84bd,%eax,%eax
  401611:	89 44 24 ec          	mov    %eax,-0x14(%rsp)
  401615:	8b 44 24 e4          	mov    -0x1c(%rsp),%eax
  401619:	69 c0 a7 d6 00 00    	imul   $0xd6a7,%eax,%eax
  40161f:	89 44 24 e4          	mov    %eax,-0x1c(%rsp)
  401623:	8b 44 24 d4          	mov    -0x2c(%rsp),%eax
  401627:	69 c0 35 b3 00 00    	imul   $0xb335,%eax,%eax
  40162d:	89 44 24 d4          	mov    %eax,-0x2c(%rsp)
  401631:	8b 44 24 d0          	mov    -0x30(%rsp),%eax
  401635:	69 c0 46 52 00 00    	imul   $0x5246,%eax,%eax
  40163b:	89 44 24 d0          	mov    %eax,-0x30(%rsp)
  40163f:	8b 44 24 f4          	mov    -0xc(%rsp),%eax
  401643:	69 c0 a0 de 00 00    	imul   $0xdea0,%eax,%eax
  401649:	89 44 24 f4          	mov    %eax,-0xc(%rsp)
  40164d:	8b 44 24 ec          	mov    -0x14(%rsp),%eax
  401651:	69 c0 77 d3 00 00    	imul   $0xd377,%eax,%eax
  401657:	89 44 24 ec          	mov    %eax,-0x14(%rsp)
  40165b:	8b 44 24 f4          	mov    -0xc(%rsp),%eax
  40165f:	69 c0 b6 48 00 00    	imul   $0x48b6,%eax,%eax
  401665:	89 44 24 f4          	mov    %eax,-0xc(%rsp)
  401669:	8b 44 24 e0          	mov    -0x20(%rsp),%eax
  40166d:	69 c0 39 91 00 00    	imul   $0x9139,%eax,%eax
  401673:	89 44 24 e0          	mov    %eax,-0x20(%rsp)
  401677:	8b 44 24 dc          	mov    -0x24(%rsp),%eax
  40167b:	69 c0 fa 24 00 00    	imul   $0x24fa,%eax,%eax
  401681:	89 44 24 dc          	mov    %eax,-0x24(%rsp)
  401685:	8b 44 24 f0          	mov    -0x10(%rsp),%eax
  401689:	69 c0 14 ab 00 00    	imul   $0xab14,%eax,%eax
  40168f:	89 44 24 f0          	mov    %eax,-0x10(%rsp)
  401693:	8b 44 24 dc          	mov    -0x24(%rsp),%eax
  401697:	69 c0 fa f3 00 00    	imul   $0xf3fa,%eax,%eax
  40169d:	89 44 24 dc          	mov    %eax,-0x24(%rsp)
  4016a1:	8b 44 24 d0          	mov    -0x30(%rsp),%eax
  4016a5:	69 c0 10 99 00 00    	imul   $0x9910,%eax,%eax
  4016ab:	89 44 24 d0          	mov    %eax,-0x30(%rsp)
  4016af:	8b 44 24 e8          	mov    -0x18(%rsp),%eax
  4016b3:	69 c0 66 d6 00 00    	imul   $0xd666,%eax,%eax
  4016b9:	89 44 24 e8          	mov    %eax,-0x18(%rsp)
  4016bd:	8b 44 24 e8          	mov    -0x18(%rsp),%eax
  4016c1:	69 c0 8f 20 00 00    	imul   $0x208f,%eax,%eax
  4016c7:	89 44 24 e8          	mov    %eax,-0x18(%rsp)
  4016cb:	8b 44 24 d0          	mov    -0x30(%rsp),%eax
  4016cf:	69 c0 75 55 00 00    	imul   $0x5575,%eax,%eax
  4016d5:	89 44 24 d0          	mov    %eax,-0x30(%rsp)
  4016d9:	8b 44 24 d8          	mov    -0x28(%rsp),%eax
  4016dd:	69 c0 61 bf 00 00    	imul   $0xbf61,%eax,%eax
  4016e3:	89 44 24 d8          	mov    %eax,-0x28(%rsp)
  4016e7:	8b 44 24 d8          	mov    -0x28(%rsp),%eax
  4016eb:	69 c0 c1 d1 00 00    	imul   $0xd1c1,%eax,%eax
  4016f1:	89 44 24 d8          	mov    %eax,-0x28(%rsp)
  4016f5:	8b 44 24 e4          	mov    -0x1c(%rsp),%eax
  4016f9:	69 c0 41 0f 00 00    	imul   $0xf41,%eax,%eax
  4016ff:	89 44 24 e4          	mov    %eax,-0x1c(%rsp)
  401703:	8b 44 24 e4          	mov    -0x1c(%rsp),%eax
  401707:	69 c0 e3 8b 00 00    	imul   $0x8be3,%eax,%eax
  40170d:	89 44 24 e4          	mov    %eax,-0x1c(%rsp)
  401711:	8b 44 24 f4          	mov    -0xc(%rsp),%eax
  401715:	69 c0 ed ef 00 00    	imul   $0xefed,%eax,%eax
  40171b:	89 44 24 f4          	mov    %eax,-0xc(%rsp)
  40171f:	8b 44 24 e8          	mov    -0x18(%rsp),%eax
  401723:	69 c0 24 04 00 00    	imul   $0x424,%eax,%eax
  401729:	89 44 24 e8          	mov    %eax,-0x18(%rsp)
  40172d:	8b 44 24 ec          	mov    -0x14(%rsp),%eax
  401731:	69 c0 5a 4b 00 00    	imul   $0x4b5a,%eax,%eax
  401737:	89 44 24 ec          	mov    %eax,-0x14(%rsp)
  40173b:	8b 44 24 d0          	mov    -0x30(%rsp),%eax
  40173f:	69 c0 56 b1 00 00    	imul   $0xb156,%eax,%eax
  401745:	89 44 24 d0          	mov    %eax,-0x30(%rsp)
  401749:	8b 44 24 d0          	mov    -0x30(%rsp),%eax
  40174d:	69 c0 bb d7 00 00    	imul   $0xd7bb,%eax,%eax
  401753:	89 44 24 d0          	mov    %eax,-0x30(%rsp)
  401757:	8b 44 24 e4          	mov    -0x1c(%rsp),%eax
  40175b:	69 c0 dd 98 00 00    	imul   $0x98dd,%eax,%eax
  401761:	89 44 24 e4          	mov    %eax,-0x1c(%rsp)
  401765:	8b 44 24 d4          	mov    -0x2c(%rsp),%eax
  401769:	69 c0 f8 64 00 00    	imul   $0x64f8,%eax,%eax
  40176f:	89 44 24 d4          	mov    %eax,-0x2c(%rsp)
  401773:	8b 44 24 e0          	mov    -0x20(%rsp),%eax
  401777:	69 c0 c5 b0 00 00    	imul   $0xb0c5,%eax,%eax
  40177d:	89 44 24 e0          	mov    %eax,-0x20(%rsp)
  401781:	8b 44 24 ec          	mov    -0x14(%rsp),%eax
  401785:	69 c0 51 38 00 00    	imul   $0x3851,%eax,%eax
  40178b:	89 44 24 ec          	mov    %eax,-0x14(%rsp)
  40178f:	8b 44 24 e8          	mov    -0x18(%rsp),%eax
  401793:	69 c0 0c 63 00 00    	imul   $0x630c,%eax,%eax
  401799:	89 44 24 e8          	mov    %eax,-0x18(%rsp)
  40179d:	8b 44 24 dc          	mov    -0x24(%rsp),%eax
  4017a1:	69 c0 57 a3 00 00    	imul   $0xa357,%eax,%eax
  4017a7:	89 44 24 dc          	mov    %eax,-0x24(%rsp)
  4017ab:	8b 44 24 e0          	mov    -0x20(%rsp),%eax
  4017af:	69 c0 30 ee 00 00    	imul   $0xee30,%eax,%eax
  4017b5:	89 44 24 e0          	mov    %eax,-0x20(%rsp)
  4017b9:	8b 44 24 e8          	mov    -0x18(%rsp),%eax
  4017bd:	69 c0 b3 92 00 00    	imul   $0x92b3,%eax,%eax
  4017c3:	89 44 24 e8          	mov    %eax,-0x18(%rsp)
  4017c7:	8b 44 24 e0          	mov    -0x20(%rsp),%eax
  4017cb:	69 c0 c0 f8 00 00    	imul   $0xf8c0,%eax,%eax
  4017d1:	89 44 24 e0          	mov    %eax,-0x20(%rsp)
  4017d5:	8b 44 24 d4          	mov    -0x2c(%rsp),%eax
  4017d9:	69 c0 e9 44 00 00    	imul   $0x44e9,%eax,%eax
  4017df:	89 44 24 d4          	mov    %eax,-0x2c(%rsp)
  4017e3:	8b 44 24 d0          	mov    -0x30(%rsp),%eax
  4017e7:	69 c0 7b 03 00 00    	imul   $0x37b,%eax,%eax
  4017ed:	89 44 24 d0          	mov    %eax,-0x30(%rsp)
  4017f1:	8b 44 24 f0          	mov    -0x10(%rsp),%eax
  4017f5:	69 c0 26 ef 00 00    	imul   $0xef26,%eax,%eax
  4017fb:	89 44 24 f0          	mov    %eax,-0x10(%rsp)
  4017ff:	8b 44 24 d4          	mov    -0x2c(%rsp),%eax
  401803:	69 c0 3b f8 00 00    	imul   $0xf83b,%eax,%eax
  401809:	89 44 24 d4          	mov    %eax,-0x2c(%rsp)
  40180d:	8b 44 24 ec          	mov    -0x14(%rsp),%eax
  401811:	69 c0 7b 54 00 00    	imul   $0x547b,%eax,%eax
  401817:	89 44 24 ec          	mov    %eax,-0x14(%rsp)
  40181b:	8b 44 24 d8          	mov    -0x28(%rsp),%eax
  40181f:	69 c0 15 17 00 00    	imul   $0x1715,%eax,%eax
  401825:	89 44 24 d8          	mov    %eax,-0x28(%rsp)
  401829:	8b 44 24 e8          	mov    -0x18(%rsp),%eax
  40182d:	69 c0 e1 7f 00 00    	imul   $0x7fe1,%eax,%eax
  401833:	89 44 24 e8          	mov    %eax,-0x18(%rsp)
  401837:	8b 44 24 f4          	mov    -0xc(%rsp),%eax
  40183b:	69 c0 05 af 00 00    	imul   $0xaf05,%eax,%eax
  401841:	89 44 24 f4          	mov    %eax,-0xc(%rsp)
  401845:	8b 44 24 f0          	mov    -0x10(%rsp),%eax
  401849:	69 c0 c9 3c 00 00    	imul   $0x3cc9,%eax,%eax
  40184f:	89 44 24 f0          	mov    %eax,-0x10(%rsp)
  401853:	8b 44 24 d8          	mov    -0x28(%rsp),%eax
  401857:	69 c0 e1 e2 00 00    	imul   $0xe2e1,%eax,%eax
  40185d:	89 44 24 d8          	mov    %eax,-0x28(%rsp)
  401861:	8b 44 24 e8          	mov    -0x18(%rsp),%eax
  401865:	69 c0 f5 e6 00 00    	imul   $0xe6f5,%eax,%eax
  40186b:	89 44 24 e8          	mov    %eax,-0x18(%rsp)
  40186f:	8b 44 24 d8          	mov    -0x28(%rsp),%eax
  401873:	69 c0 fa cd 00 00    	imul   $0xcdfa,%eax,%eax
  401879:	89 44 24 d8          	mov    %eax,-0x28(%rsp)
  40187d:	8b 44 24 e8          	mov    -0x18(%rsp),%eax
  401881:	69 c0 6f fe 00 00    	imul   $0xfe6f,%eax,%eax
  401887:	89 44 24 e8          	mov    %eax,-0x18(%rsp)
  40188b:	8b 44 24 ec          	mov    -0x14(%rsp),%eax
  40188f:	69 c0 04 ed 00 00    	imul   $0xed04,%eax,%eax
  401895:	89 44 24 ec          	mov    %eax,-0x14(%rsp)
  401899:	8b 44 24 e0          	mov    -0x20(%rsp),%eax
  40189d:	69 c0 1c 7c 00 00    	imul   $0x7c1c,%eax,%eax
  4018a3:	89 44 24 e0          	mov    %eax,-0x20(%rsp)
  4018a7:	ba 00 00 00 00       	mov    $0x0,%edx
  4018ac:	b8 00 00 00 00       	mov    $0x0,%eax
  4018b1:	eb 0b                	jmp    4018be <scramble+0x566>
  4018b3:	89 d1                	mov    %edx,%ecx
  4018b5:	8b 4c 8c d0          	mov    -0x30(%rsp,%rcx,4),%ecx
  4018b9:	01 c8                	add    %ecx,%eax
  4018bb:	83 c2 01             	add    $0x1,%edx
  4018be:	83 fa 09             	cmp    $0x9,%edx
  4018c1:	76 f0                	jbe    4018b3 <scramble+0x55b>
  4018c3:	f3 c3                	repz retq 

00000000004018c5 <getbuf>:
  4018c5:	48 83 ec 28          	sub    $0x28,%rsp
  4018c9:	48 89 e7             	mov    %rsp,%rdi
  4018cc:	e8 4d 03 00 00       	callq  401c1e <Gets>
  4018d1:	b8 01 00 00 00       	mov    $0x1,%eax
  4018d6:	48 83 c4 28          	add    $0x28,%rsp
  4018da:	c3                   	retq   

00000000004018db <touch1>:
  4018db:	48 83 ec 08          	sub    $0x8,%rsp
  4018df:	c7 05 13 3c 20 00 01 	movl   $0x1,0x203c13(%rip)        # 6054fc <vlevel>
  4018e6:	00 00 00 
  4018e9:	bf 55 32 40 00       	mov    $0x403255,%edi
  4018ee:	e8 3d f4 ff ff       	callq  400d30 <puts@plt>
  4018f3:	bf 01 00 00 00       	mov    $0x1,%edi
  4018f8:	e8 1c 05 00 00       	callq  401e19 <validate>
  4018fd:	bf 00 00 00 00       	mov    $0x0,%edi
  401902:	e8 c9 f5 ff ff       	callq  400ed0 <exit@plt>

0000000000401907 <touch2>:
  401907:	48 83 ec 08          	sub    $0x8,%rsp
  40190b:	89 fe                	mov    %edi,%esi
  40190d:	c7 05 e5 3b 20 00 02 	movl   $0x2,0x203be5(%rip)        # 6054fc <vlevel>
  401914:	00 00 00 
  401917:	39 3d e7 3b 20 00    	cmp    %edi,0x203be7(%rip)        # 605504 <cookie>
  40191d:	74 23                	je     401942 <touch2+0x3b>
  40191f:	bf a0 32 40 00       	mov    $0x4032a0,%edi
  401924:	b8 00 00 00 00       	mov    $0x0,%eax
  401929:	e8 32 f4 ff ff       	callq  400d60 <printf@plt>
  40192e:	bf 02 00 00 00       	mov    $0x2,%edi
  401933:	e8 93 05 00 00       	callq  401ecb <fail>
  401938:	bf 00 00 00 00       	mov    $0x0,%edi
  40193d:	e8 8e f5 ff ff       	callq  400ed0 <exit@plt>
  401942:	bf 78 32 40 00       	mov    $0x403278,%edi
  401947:	b8 00 00 00 00       	mov    $0x0,%eax
  40194c:	e8 0f f4 ff ff       	callq  400d60 <printf@plt>
  401951:	bf 02 00 00 00       	mov    $0x2,%edi
  401956:	e8 be 04 00 00       	callq  401e19 <validate>
  40195b:	eb db                	jmp    401938 <touch2+0x31>

000000000040195d <hexmatch>:
  40195d:	41 54                	push   %r12
  40195f:	55                   	push   %rbp
  401960:	53                   	push   %rbx
  401961:	48 83 ec 70          	sub    $0x70,%rsp
  401965:	89 fd                	mov    %edi,%ebp
  401967:	48 89 f3             	mov    %rsi,%rbx
  40196a:	e8 c1 f4 ff ff       	callq  400e30 <random@plt>
  40196f:	48 89 c1             	mov    %rax,%rcx
  401972:	48 ba 0b d7 a3 70 3d 	movabs $0xa3d70a3d70a3d70b,%rdx
  401979:	0a d7 a3 
  40197c:	48 f7 ea             	imul   %rdx
  40197f:	48 01 ca             	add    %rcx,%rdx
  401982:	48 c1 fa 06          	sar    $0x6,%rdx
  401986:	48 89 c8             	mov    %rcx,%rax
  401989:	48 c1 f8 3f          	sar    $0x3f,%rax
  40198d:	48 29 c2             	sub    %rax,%rdx
  401990:	48 8d 04 92          	lea    (%rdx,%rdx,4),%rax
  401994:	48 8d 14 80          	lea    (%rax,%rax,4),%rdx
  401998:	48 8d 04 95 00 00 00 	lea    0x0(,%rdx,4),%rax
  40199f:	00 
  4019a0:	48 29 c1             	sub    %rax,%rcx
  4019a3:	4c 8d 24 0c          	lea    (%rsp,%rcx,1),%r12
  4019a7:	89 ea                	mov    %ebp,%edx
  4019a9:	be 72 32 40 00       	mov    $0x403272,%esi
  4019ae:	4c 89 e7             	mov    %r12,%rdi
  4019b1:	b8 00 00 00 00       	mov    $0x0,%eax
  4019b6:	e8 05 f5 ff ff       	callq  400ec0 <sprintf@plt>
  4019bb:	ba 09 00 00 00       	mov    $0x9,%edx
  4019c0:	4c 89 e6             	mov    %r12,%rsi
  4019c3:	48 89 df             	mov    %rbx,%rdi
  4019c6:	e8 45 f3 ff ff       	callq  400d10 <strncmp@plt>
  4019cb:	85 c0                	test   %eax,%eax
  4019cd:	0f 94 c0             	sete   %al
  4019d0:	0f b6 c0             	movzbl %al,%eax
  4019d3:	48 83 c4 70          	add    $0x70,%rsp
  4019d7:	5b                   	pop    %rbx
  4019d8:	5d                   	pop    %rbp
  4019d9:	41 5c                	pop    %r12
  4019db:	c3                   	retq   

00000000004019dc <touch3>:
  4019dc:	53                   	push   %rbx
  4019dd:	48 89 fb             	mov    %rdi,%rbx
  4019e0:	c7 05 12 3b 20 00 03 	movl   $0x3,0x203b12(%rip)        # 6054fc <vlevel>
  4019e7:	00 00 00 
  4019ea:	48 89 fe             	mov    %rdi,%rsi
  4019ed:	8b 3d 11 3b 20 00    	mov    0x203b11(%rip),%edi        # 605504 <cookie>
  4019f3:	e8 65 ff ff ff       	callq  40195d <hexmatch>
  4019f8:	85 c0                	test   %eax,%eax
  4019fa:	74 26                	je     401a22 <touch3+0x46>
  4019fc:	48 89 de             	mov    %rbx,%rsi
  4019ff:	bf c8 32 40 00       	mov    $0x4032c8,%edi
  401a04:	b8 00 00 00 00       	mov    $0x0,%eax
  401a09:	e8 52 f3 ff ff       	callq  400d60 <printf@plt>
  401a0e:	bf 03 00 00 00       	mov    $0x3,%edi
  401a13:	e8 01 04 00 00       	callq  401e19 <validate>
  401a18:	bf 00 00 00 00       	mov    $0x0,%edi
  401a1d:	e8 ae f4 ff ff       	callq  400ed0 <exit@plt>
  401a22:	48 89 de             	mov    %rbx,%rsi
  401a25:	bf f0 32 40 00       	mov    $0x4032f0,%edi
  401a2a:	b8 00 00 00 00       	mov    $0x0,%eax
  401a2f:	e8 2c f3 ff ff       	callq  400d60 <printf@plt>
  401a34:	bf 03 00 00 00       	mov    $0x3,%edi
  401a39:	e8 8d 04 00 00       	callq  401ecb <fail>
  401a3e:	eb d8                	jmp    401a18 <touch3+0x3c>

0000000000401a40 <test>:
  401a40:	48 83 ec 08          	sub    $0x8,%rsp
  401a44:	b8 00 00 00 00       	mov    $0x0,%eax
  401a49:	e8 77 fe ff ff       	callq  4018c5 <getbuf>
  401a4e:	89 c6                	mov    %eax,%esi
  401a50:	bf 18 33 40 00       	mov    $0x403318,%edi
  401a55:	b8 00 00 00 00       	mov    $0x0,%eax
  401a5a:	e8 01 f3 ff ff       	callq  400d60 <printf@plt>
  401a5f:	48 83 c4 08          	add    $0x8,%rsp
  401a63:	c3                   	retq   

0000000000401a64 <start_farm>:
  401a64:	b8 01 00 00 00       	mov    $0x1,%eax
  401a69:	c3                   	retq   

0000000000401a6a <addval_279>:
  401a6a:	8d 87 48 8b c7 90    	lea    -0x6f3874b8(%rdi),%eax
  401a70:	c3                   	retq   

0000000000401a71 <setval_298>:
  401a71:	c7 07 48 89 c7 c3    	movl   $0xc3c78948,(%rdi)
  401a77:	c3                   	retq   

0000000000401a78 <getval_319>:
  401a78:	b8 58 90 90 c3       	mov    $0xc3909058,%eax
  401a7d:	c3                   	retq   

0000000000401a7e <setval_135>:
  401a7e:	c7 07 58 94 90 90    	movl   $0x90909458,(%rdi)
  401a84:	c3                   	retq   

0000000000401a85 <getval_406>:
  401a85:	b8 92 39 78 90       	mov    $0x90783992,%eax
  401a8a:	c3                   	retq   

0000000000401a8b <getval_434>:
  401a8b:	b8 48 89 c7 c3       	mov    $0xc3c78948,%eax
  401a90:	c3                   	retq   

0000000000401a91 <addval_157>:
  401a91:	8d 87 67 f9 58 c3    	lea    -0x3ca70699(%rdi),%eax
  401a97:	c3                   	retq   

0000000000401a98 <addval_440>:
  401a98:	8d 87 48 89 c7 92    	lea    -0x6d3876b8(%rdi),%eax
  401a9e:	c3                   	retq   

0000000000401a9f <mid_farm>:
  401a9f:	b8 01 00 00 00       	mov    $0x1,%eax
  401aa4:	c3                   	retq   

0000000000401aa5 <add_xy>:
  401aa5:	48 8d 04 37          	lea    (%rdi,%rsi,1),%rax
  401aa9:	c3                   	retq   

0000000000401aaa <getval_166>:
  401aaa:	b8 48 89 e0 91       	mov    $0x91e08948,%eax
  401aaf:	c3                   	retq   

0000000000401ab0 <setval_133>:
  401ab0:	c7 07 48 89 e0 c7    	movl   $0xc7e08948,(%rdi)
  401ab6:	c3                   	retq   

0000000000401ab7 <addval_146>:
  401ab7:	8d 87 48 89 e0 c3    	lea    -0x3c1f76b8(%rdi),%eax
  401abd:	c3                   	retq   

0000000000401abe <getval_204>:
  401abe:	b8 89 d1 08 c9       	mov    $0xc908d189,%eax
  401ac3:	c3                   	retq   

0000000000401ac4 <addval_376>:
  401ac4:	8d 87 48 89 e0 92    	lea    -0x6d1f76b8(%rdi),%eax
  401aca:	c3                   	retq   

0000000000401acb <getval_419>:
  401acb:	b8 89 ce 08 db       	mov    $0xdb08ce89,%eax
  401ad0:	c3                   	retq   

0000000000401ad1 <getval_153>:
  401ad1:	b8 89 ce 08 c0       	mov    $0xc008ce89,%eax
  401ad6:	c3                   	retq   

0000000000401ad7 <setval_148>:
  401ad7:	c7 07 89 d1 20 c0    	movl   $0xc020d189,(%rdi)
  401add:	c3                   	retq   

0000000000401ade <setval_286>:
  401ade:	c7 07 a9 d1 08 d2    	movl   $0xd208d1a9,(%rdi)
  401ae4:	c3                   	retq   

0000000000401ae5 <getval_341>:
  401ae5:	b8 89 c2 c1 58       	mov    $0x58c1c289,%eax
  401aea:	c3                   	retq   

0000000000401aeb <setval_458>:
  401aeb:	c7 07 99 ce 90 c3    	movl   $0xc390ce99,(%rdi)
  401af1:	c3                   	retq   

0000000000401af2 <setval_387>:
  401af2:	c7 07 c9 c2 20 c9    	movl   $0xc920c2c9,(%rdi)
  401af8:	c3                   	retq   

0000000000401af9 <addval_290>:
  401af9:	8d 87 89 c2 30 d2    	lea    -0x2dcf3d77(%rdi),%eax
  401aff:	c3                   	retq   

0000000000401b00 <getval_285>:
  401b00:	b8 01 89 c2 90       	mov    $0x90c28901,%eax
  401b05:	c3                   	retq   

0000000000401b06 <addval_438>:
  401b06:	8d 87 9f f9 99 ce    	lea    -0x31660661(%rdi),%eax
  401b0c:	c3                   	retq   

0000000000401b0d <getval_350>:
  401b0d:	b8 b3 ac 99 c2       	mov    $0xc299acb3,%eax
  401b12:	c3                   	retq   

0000000000401b13 <getval_494>:
  401b13:	b8 48 89 e0 92       	mov    $0x92e08948,%eax
  401b18:	c3                   	retq   

0000000000401b19 <addval_250>:
  401b19:	8d 87 f7 89 ce 91    	lea    -0x6e317609(%rdi),%eax
  401b1f:	c3                   	retq   

0000000000401b20 <getval_125>:
  401b20:	b8 09 d1 c3 10       	mov    $0x10c3d109,%eax
  401b25:	c3                   	retq   

0000000000401b26 <setval_221>:
  401b26:	c7 07 89 d1 c2 14    	movl   $0x14c2d189,(%rdi)
  401b2c:	c3                   	retq   

0000000000401b2d <setval_218>:
  401b2d:	c7 07 85 89 d1 c7    	movl   $0xc7d18985,(%rdi)
  401b33:	c3                   	retq   

0000000000401b34 <setval_445>:
  401b34:	c7 07 ac 89 ce c2    	movl   $0xc2ce89ac,(%rdi)
  401b3a:	c3                   	retq   

0000000000401b3b <getval_277>:
  401b3b:	b8 c9 c2 08 d2       	mov    $0xd208c2c9,%eax
  401b40:	c3                   	retq   

0000000000401b41 <addval_256>:
  401b41:	8d 87 88 d1 20 c9    	lea    -0x36df2e78(%rdi),%eax
  401b47:	c3                   	retq   

0000000000401b48 <setval_154>:
  401b48:	c7 07 89 c2 38 d2    	movl   $0xd238c289,(%rdi)
  401b4e:	c3                   	retq   

0000000000401b4f <getval_410>:
  401b4f:	b8 99 c2 20 c9       	mov    $0xc920c299,%eax
  401b54:	c3                   	retq   

0000000000401b55 <addval_324>:
  401b55:	8d 87 89 ce c1 c0    	lea    -0x3f3e3177(%rdi),%eax
  401b5b:	c3                   	retq   

0000000000401b5c <addval_158>:
  401b5c:	8d 87 8b d1 08 db    	lea    -0x24f72e75(%rdi),%eax
  401b62:	c3                   	retq   

0000000000401b63 <addval_219>:
  401b63:	8d 87 6e 58 89 e0    	lea    -0x1f76a792(%rdi),%eax
  401b69:	c3                   	retq   

0000000000401b6a <setval_251>:
  401b6a:	c7 07 c8 89 e0 c3    	movl   $0xc3e089c8,(%rdi)
  401b70:	c3                   	retq   

0000000000401b71 <getval_453>:
  401b71:	b8 89 ce 94 db       	mov    $0xdb94ce89,%eax
  401b76:	c3                   	retq   

0000000000401b77 <addval_202>:
  401b77:	8d 87 48 89 e0 90    	lea    -0x6f1f76b8(%rdi),%eax
  401b7d:	c3                   	retq   

0000000000401b7e <end_farm>:
  401b7e:	b8 01 00 00 00       	mov    $0x1,%eax
  401b83:	c3                   	retq   

0000000000401b84 <save_char>:
  401b84:	8b 05 9a 45 20 00    	mov    0x20459a(%rip),%eax        # 606124 <gets_cnt>
  401b8a:	3d ff 03 00 00       	cmp    $0x3ff,%eax
  401b8f:	7f 49                	jg     401bda <save_char+0x56>
  401b91:	89 f9                	mov    %edi,%ecx
  401b93:	c0 e9 04             	shr    $0x4,%cl
  401b96:	8d 14 40             	lea    (%rax,%rax,2),%edx
  401b99:	83 e1 0f             	and    $0xf,%ecx
  401b9c:	0f b6 b1 40 36 40 00 	movzbl 0x403640(%rcx),%esi
  401ba3:	48 63 ca             	movslq %edx,%rcx
  401ba6:	40 88 b1 20 55 60 00 	mov    %sil,0x605520(%rcx)
  401bad:	8d 4a 01             	lea    0x1(%rdx),%ecx
  401bb0:	83 e7 0f             	and    $0xf,%edi
  401bb3:	0f b6 b7 40 36 40 00 	movzbl 0x403640(%rdi),%esi
  401bba:	48 63 c9             	movslq %ecx,%rcx
  401bbd:	40 88 b1 20 55 60 00 	mov    %sil,0x605520(%rcx)
  401bc4:	83 c2 02             	add    $0x2,%edx
  401bc7:	48 63 d2             	movslq %edx,%rdx
  401bca:	c6 82 20 55 60 00 20 	movb   $0x20,0x605520(%rdx)
  401bd1:	83 c0 01             	add    $0x1,%eax
  401bd4:	89 05 4a 45 20 00    	mov    %eax,0x20454a(%rip)        # 606124 <gets_cnt>
  401bda:	f3 c3                	repz retq 

0000000000401bdc <save_term>:
  401bdc:	8b 05 42 45 20 00    	mov    0x204542(%rip),%eax        # 606124 <gets_cnt>
  401be2:	8d 04 40             	lea    (%rax,%rax,2),%eax
  401be5:	48 98                	cltq   
  401be7:	c6 80 20 55 60 00 00 	movb   $0x0,0x605520(%rax)
  401bee:	c3                   	retq   

0000000000401bef <check_fail>:
  401bef:	48 83 ec 08          	sub    $0x8,%rsp
  401bf3:	0f be 35 2e 45 20 00 	movsbl 0x20452e(%rip),%esi        # 606128 <target_prefix>
  401bfa:	b9 20 55 60 00       	mov    $0x605520,%ecx
  401bff:	8b 15 f3 38 20 00    	mov    0x2038f3(%rip),%edx        # 6054f8 <check_level>
  401c05:	bf 3b 33 40 00       	mov    $0x40333b,%edi
  401c0a:	b8 00 00 00 00       	mov    $0x0,%eax
  401c0f:	e8 4c f1 ff ff       	callq  400d60 <printf@plt>
  401c14:	bf 01 00 00 00       	mov    $0x1,%edi
  401c19:	e8 b2 f2 ff ff       	callq  400ed0 <exit@plt>

0000000000401c1e <Gets>:
  401c1e:	41 54                	push   %r12
  401c20:	55                   	push   %rbp
  401c21:	53                   	push   %rbx
  401c22:	49 89 fc             	mov    %rdi,%r12
  401c25:	c7 05 f5 44 20 00 00 	movl   $0x0,0x2044f5(%rip)        # 606124 <gets_cnt>
  401c2c:	00 00 00 
  401c2f:	48 89 fb             	mov    %rdi,%rbx
  401c32:	eb 11                	jmp    401c45 <Gets+0x27>
  401c34:	48 8d 6b 01          	lea    0x1(%rbx),%rbp
  401c38:	88 03                	mov    %al,(%rbx)
  401c3a:	0f b6 f8             	movzbl %al,%edi
  401c3d:	e8 42 ff ff ff       	callq  401b84 <save_char>
  401c42:	48 89 eb             	mov    %rbp,%rbx
  401c45:	48 8b 3d a4 38 20 00 	mov    0x2038a4(%rip),%rdi        # 6054f0 <infile>
  401c4c:	e8 ef f1 ff ff       	callq  400e40 <_IO_getc@plt>
  401c51:	83 f8 ff             	cmp    $0xffffffff,%eax
  401c54:	74 05                	je     401c5b <Gets+0x3d>
  401c56:	83 f8 0a             	cmp    $0xa,%eax
  401c59:	75 d9                	jne    401c34 <Gets+0x16>
  401c5b:	c6 03 00             	movb   $0x0,(%rbx)
  401c5e:	b8 00 00 00 00       	mov    $0x0,%eax
  401c63:	e8 74 ff ff ff       	callq  401bdc <save_term>
  401c68:	4c 89 e0             	mov    %r12,%rax
  401c6b:	5b                   	pop    %rbx
  401c6c:	5d                   	pop    %rbp
  401c6d:	41 5c                	pop    %r12
  401c6f:	c3                   	retq   

0000000000401c70 <notify_server>:
  401c70:	83 3d 91 38 20 00 00 	cmpl   $0x0,0x203891(%rip)        # 605508 <is_checker>
  401c77:	0f 85 9a 01 00 00    	jne    401e17 <notify_server+0x1a7>
  401c7d:	55                   	push   %rbp
  401c7e:	53                   	push   %rbx
  401c7f:	48 81 ec 08 40 00 00 	sub    $0x4008,%rsp
  401c86:	89 fb                	mov    %edi,%ebx
  401c88:	8b 05 96 44 20 00    	mov    0x204496(%rip),%eax        # 606124 <gets_cnt>
  401c8e:	83 c0 64             	add    $0x64,%eax
  401c91:	3d 00 20 00 00       	cmp    $0x2000,%eax
  401c96:	0f 8f b5 00 00 00    	jg     401d51 <notify_server+0xe1>
  401c9c:	44 0f be 0d 84 44 20 	movsbl 0x204484(%rip),%r9d        # 606128 <target_prefix>
  401ca3:	00 
  401ca4:	83 3d fd 37 20 00 00 	cmpl   $0x0,0x2037fd(%rip)        # 6054a8 <notify>
  401cab:	0f 84 b9 00 00 00    	je     401d6a <notify_server+0xfa>
  401cb1:	44 8b 05 48 38 20 00 	mov    0x203848(%rip),%r8d        # 605500 <authkey>
  401cb8:	85 db                	test   %ebx,%ebx
  401cba:	0f 84 b5 00 00 00    	je     401d75 <notify_server+0x105>
  401cc0:	bd 51 33 40 00       	mov    $0x403351,%ebp
  401cc5:	68 20 55 60 00       	pushq  $0x605520
  401cca:	56                   	push   %rsi
  401ccb:	48 89 e9             	mov    %rbp,%rcx
  401cce:	8b 15 94 34 20 00    	mov    0x203494(%rip),%edx        # 605168 <target_id>
  401cd4:	be 5b 33 40 00       	mov    $0x40335b,%esi
  401cd9:	48 8d bc 24 10 20 00 	lea    0x2010(%rsp),%rdi
  401ce0:	00 
  401ce1:	b8 00 00 00 00       	mov    $0x0,%eax
  401ce6:	e8 d5 f1 ff ff       	callq  400ec0 <sprintf@plt>
  401ceb:	48 83 c4 10          	add    $0x10,%rsp
  401cef:	83 3d b2 37 20 00 00 	cmpl   $0x0,0x2037b2(%rip)        # 6054a8 <notify>
  401cf6:	0f 84 ab 00 00 00    	je     401da7 <notify_server+0x137>
  401cfc:	85 db                	test   %ebx,%ebx
  401cfe:	0f 84 97 00 00 00    	je     401d9b <notify_server+0x12b>
  401d04:	49 89 e1             	mov    %rsp,%r9
  401d07:	41 b8 00 00 00 00    	mov    $0x0,%r8d
  401d0d:	48 8d 8c 24 00 20 00 	lea    0x2000(%rsp),%rcx
  401d14:	00 
  401d15:	48 8b 15 54 34 20 00 	mov    0x203454(%rip),%rdx        # 605170 <lab>
  401d1c:	48 8b 35 55 34 20 00 	mov    0x203455(%rip),%rsi        # 605178 <course>
  401d23:	48 8b 3d 36 34 20 00 	mov    0x203436(%rip),%rdi        # 605160 <user_id>
  401d2a:	e8 fb 0f 00 00       	callq  402d2a <driver_post>
  401d2f:	85 c0                	test   %eax,%eax
  401d31:	78 4c                	js     401d7f <notify_server+0x10f>
  401d33:	bf a0 34 40 00       	mov    $0x4034a0,%edi
  401d38:	e8 f3 ef ff ff       	callq  400d30 <puts@plt>
  401d3d:	bf 83 33 40 00       	mov    $0x403383,%edi
  401d42:	e8 e9 ef ff ff       	callq  400d30 <puts@plt>
  401d47:	48 81 c4 08 40 00 00 	add    $0x4008,%rsp
  401d4e:	5b                   	pop    %rbx
  401d4f:	5d                   	pop    %rbp
  401d50:	c3                   	retq   
  401d51:	bf 70 34 40 00       	mov    $0x403470,%edi
  401d56:	b8 00 00 00 00       	mov    $0x0,%eax
  401d5b:	e8 00 f0 ff ff       	callq  400d60 <printf@plt>
  401d60:	bf 01 00 00 00       	mov    $0x1,%edi
  401d65:	e8 66 f1 ff ff       	callq  400ed0 <exit@plt>
  401d6a:	41 b8 ff ff ff ff    	mov    $0xffffffff,%r8d
  401d70:	e9 43 ff ff ff       	jmpq   401cb8 <notify_server+0x48>
  401d75:	bd 56 33 40 00       	mov    $0x403356,%ebp
  401d7a:	e9 46 ff ff ff       	jmpq   401cc5 <notify_server+0x55>
  401d7f:	48 89 e6             	mov    %rsp,%rsi
  401d82:	bf 77 33 40 00       	mov    $0x403377,%edi
  401d87:	b8 00 00 00 00       	mov    $0x0,%eax
  401d8c:	e8 cf ef ff ff       	callq  400d60 <printf@plt>
  401d91:	bf 01 00 00 00       	mov    $0x1,%edi
  401d96:	e8 35 f1 ff ff       	callq  400ed0 <exit@plt>
  401d9b:	bf 8d 33 40 00       	mov    $0x40338d,%edi
  401da0:	e8 8b ef ff ff       	callq  400d30 <puts@plt>
  401da5:	eb a0                	jmp    401d47 <notify_server+0xd7>
  401da7:	48 89 ee             	mov    %rbp,%rsi
  401daa:	bf d8 34 40 00       	mov    $0x4034d8,%edi
  401daf:	b8 00 00 00 00       	mov    $0x0,%eax
  401db4:	e8 a7 ef ff ff       	callq  400d60 <printf@plt>
  401db9:	48 8b 35 a0 33 20 00 	mov    0x2033a0(%rip),%rsi        # 605160 <user_id>
  401dc0:	bf 94 33 40 00       	mov    $0x403394,%edi
  401dc5:	b8 00 00 00 00       	mov    $0x0,%eax
  401dca:	e8 91 ef ff ff       	callq  400d60 <printf@plt>
  401dcf:	48 8b 35 a2 33 20 00 	mov    0x2033a2(%rip),%rsi        # 605178 <course>
  401dd6:	bf a1 33 40 00       	mov    $0x4033a1,%edi
  401ddb:	b8 00 00 00 00       	mov    $0x0,%eax
  401de0:	e8 7b ef ff ff       	callq  400d60 <printf@plt>
  401de5:	48 8b 35 84 33 20 00 	mov    0x203384(%rip),%rsi        # 605170 <lab>
  401dec:	bf ad 33 40 00       	mov    $0x4033ad,%edi
  401df1:	b8 00 00 00 00       	mov    $0x0,%eax
  401df6:	e8 65 ef ff ff       	callq  400d60 <printf@plt>
  401dfb:	48 8d b4 24 00 20 00 	lea    0x2000(%rsp),%rsi
  401e02:	00 
  401e03:	bf b6 33 40 00       	mov    $0x4033b6,%edi
  401e08:	b8 00 00 00 00       	mov    $0x0,%eax
  401e0d:	e8 4e ef ff ff       	callq  400d60 <printf@plt>
  401e12:	e9 30 ff ff ff       	jmpq   401d47 <notify_server+0xd7>
  401e17:	f3 c3                	repz retq 

0000000000401e19 <validate>:
  401e19:	53                   	push   %rbx
  401e1a:	89 fb                	mov    %edi,%ebx
  401e1c:	83 3d e5 36 20 00 00 	cmpl   $0x0,0x2036e5(%rip)        # 605508 <is_checker>
  401e23:	74 60                	je     401e85 <validate+0x6c>
  401e25:	39 3d d1 36 20 00    	cmp    %edi,0x2036d1(%rip)        # 6054fc <vlevel>
  401e2b:	75 29                	jne    401e56 <validate+0x3d>
  401e2d:	8b 35 c5 36 20 00    	mov    0x2036c5(%rip),%esi        # 6054f8 <check_level>
  401e33:	39 fe                	cmp    %edi,%esi
  401e35:	75 33                	jne    401e6a <validate+0x51>
  401e37:	0f be 35 ea 42 20 00 	movsbl 0x2042ea(%rip),%esi        # 606128 <target_prefix>
  401e3e:	b9 20 55 60 00       	mov    $0x605520,%ecx
  401e43:	89 fa                	mov    %edi,%edx
  401e45:	bf e0 33 40 00       	mov    $0x4033e0,%edi
  401e4a:	b8 00 00 00 00       	mov    $0x0,%eax
  401e4f:	e8 0c ef ff ff       	callq  400d60 <printf@plt>
  401e54:	5b                   	pop    %rbx
  401e55:	c3                   	retq   
  401e56:	bf c2 33 40 00       	mov    $0x4033c2,%edi
  401e5b:	e8 d0 ee ff ff       	callq  400d30 <puts@plt>
  401e60:	b8 00 00 00 00       	mov    $0x0,%eax
  401e65:	e8 85 fd ff ff       	callq  401bef <check_fail>
  401e6a:	89 fa                	mov    %edi,%edx
  401e6c:	bf 00 35 40 00       	mov    $0x403500,%edi
  401e71:	b8 00 00 00 00       	mov    $0x0,%eax
  401e76:	e8 e5 ee ff ff       	callq  400d60 <printf@plt>
  401e7b:	b8 00 00 00 00       	mov    $0x0,%eax
  401e80:	e8 6a fd ff ff       	callq  401bef <check_fail>
  401e85:	39 3d 71 36 20 00    	cmp    %edi,0x203671(%rip)        # 6054fc <vlevel>
  401e8b:	74 18                	je     401ea5 <validate+0x8c>
  401e8d:	bf c2 33 40 00       	mov    $0x4033c2,%edi
  401e92:	e8 99 ee ff ff       	callq  400d30 <puts@plt>
  401e97:	89 de                	mov    %ebx,%esi
  401e99:	bf 00 00 00 00       	mov    $0x0,%edi
  401e9e:	e8 cd fd ff ff       	callq  401c70 <notify_server>
  401ea3:	eb af                	jmp    401e54 <validate+0x3b>
  401ea5:	0f be 15 7c 42 20 00 	movsbl 0x20427c(%rip),%edx        # 606128 <target_prefix>
  401eac:	89 fe                	mov    %edi,%esi
  401eae:	bf 28 35 40 00       	mov    $0x403528,%edi
  401eb3:	b8 00 00 00 00       	mov    $0x0,%eax
  401eb8:	e8 a3 ee ff ff       	callq  400d60 <printf@plt>
  401ebd:	89 de                	mov    %ebx,%esi
  401ebf:	bf 01 00 00 00       	mov    $0x1,%edi
  401ec4:	e8 a7 fd ff ff       	callq  401c70 <notify_server>
  401ec9:	eb 89                	jmp    401e54 <validate+0x3b>

0000000000401ecb <fail>:
  401ecb:	48 83 ec 08          	sub    $0x8,%rsp
  401ecf:	83 3d 32 36 20 00 00 	cmpl   $0x0,0x203632(%rip)        # 605508 <is_checker>
  401ed6:	75 11                	jne    401ee9 <fail+0x1e>
  401ed8:	89 fe                	mov    %edi,%esi
  401eda:	bf 00 00 00 00       	mov    $0x0,%edi
  401edf:	e8 8c fd ff ff       	callq  401c70 <notify_server>
  401ee4:	48 83 c4 08          	add    $0x8,%rsp
  401ee8:	c3                   	retq   
  401ee9:	b8 00 00 00 00       	mov    $0x0,%eax
  401eee:	e8 fc fc ff ff       	callq  401bef <check_fail>

0000000000401ef3 <bushandler>:
  401ef3:	48 83 ec 08          	sub    $0x8,%rsp
  401ef7:	83 3d 0a 36 20 00 00 	cmpl   $0x0,0x20360a(%rip)        # 605508 <is_checker>
  401efe:	74 14                	je     401f14 <bushandler+0x21>
  401f00:	bf f5 33 40 00       	mov    $0x4033f5,%edi
  401f05:	e8 26 ee ff ff       	callq  400d30 <puts@plt>
  401f0a:	b8 00 00 00 00       	mov    $0x0,%eax
  401f0f:	e8 db fc ff ff       	callq  401bef <check_fail>
  401f14:	bf 60 35 40 00       	mov    $0x403560,%edi
  401f19:	e8 12 ee ff ff       	callq  400d30 <puts@plt>
  401f1e:	bf ff 33 40 00       	mov    $0x4033ff,%edi
  401f23:	e8 08 ee ff ff       	callq  400d30 <puts@plt>
  401f28:	be 00 00 00 00       	mov    $0x0,%esi
  401f2d:	bf 00 00 00 00       	mov    $0x0,%edi
  401f32:	e8 39 fd ff ff       	callq  401c70 <notify_server>
  401f37:	bf 01 00 00 00       	mov    $0x1,%edi
  401f3c:	e8 8f ef ff ff       	callq  400ed0 <exit@plt>

0000000000401f41 <seghandler>:
  401f41:	48 83 ec 08          	sub    $0x8,%rsp
  401f45:	83 3d bc 35 20 00 00 	cmpl   $0x0,0x2035bc(%rip)        # 605508 <is_checker>
  401f4c:	74 14                	je     401f62 <seghandler+0x21>
  401f4e:	bf 15 34 40 00       	mov    $0x403415,%edi
  401f53:	e8 d8 ed ff ff       	callq  400d30 <puts@plt>
  401f58:	b8 00 00 00 00       	mov    $0x0,%eax
  401f5d:	e8 8d fc ff ff       	callq  401bef <check_fail>
  401f62:	bf 80 35 40 00       	mov    $0x403580,%edi
  401f67:	e8 c4 ed ff ff       	callq  400d30 <puts@plt>
  401f6c:	bf ff 33 40 00       	mov    $0x4033ff,%edi
  401f71:	e8 ba ed ff ff       	callq  400d30 <puts@plt>
  401f76:	be 00 00 00 00       	mov    $0x0,%esi
  401f7b:	bf 00 00 00 00       	mov    $0x0,%edi
  401f80:	e8 eb fc ff ff       	callq  401c70 <notify_server>
  401f85:	bf 01 00 00 00       	mov    $0x1,%edi
  401f8a:	e8 41 ef ff ff       	callq  400ed0 <exit@plt>

0000000000401f8f <illegalhandler>:
  401f8f:	48 83 ec 08          	sub    $0x8,%rsp
  401f93:	83 3d 6e 35 20 00 00 	cmpl   $0x0,0x20356e(%rip)        # 605508 <is_checker>
  401f9a:	74 14                	je     401fb0 <illegalhandler+0x21>
  401f9c:	bf 28 34 40 00       	mov    $0x403428,%edi
  401fa1:	e8 8a ed ff ff       	callq  400d30 <puts@plt>
  401fa6:	b8 00 00 00 00       	mov    $0x0,%eax
  401fab:	e8 3f fc ff ff       	callq  401bef <check_fail>
  401fb0:	bf a8 35 40 00       	mov    $0x4035a8,%edi
  401fb5:	e8 76 ed ff ff       	callq  400d30 <puts@plt>
  401fba:	bf ff 33 40 00       	mov    $0x4033ff,%edi
  401fbf:	e8 6c ed ff ff       	callq  400d30 <puts@plt>
  401fc4:	be 00 00 00 00       	mov    $0x0,%esi
  401fc9:	bf 00 00 00 00       	mov    $0x0,%edi
  401fce:	e8 9d fc ff ff       	callq  401c70 <notify_server>
  401fd3:	bf 01 00 00 00       	mov    $0x1,%edi
  401fd8:	e8 f3 ee ff ff       	callq  400ed0 <exit@plt>

0000000000401fdd <sigalrmhandler>:
  401fdd:	48 83 ec 08          	sub    $0x8,%rsp
  401fe1:	83 3d 20 35 20 00 00 	cmpl   $0x0,0x203520(%rip)        # 605508 <is_checker>
  401fe8:	74 14                	je     401ffe <sigalrmhandler+0x21>
  401fea:	bf 3c 34 40 00       	mov    $0x40343c,%edi
  401fef:	e8 3c ed ff ff       	callq  400d30 <puts@plt>
  401ff4:	b8 00 00 00 00       	mov    $0x0,%eax
  401ff9:	e8 f1 fb ff ff       	callq  401bef <check_fail>
  401ffe:	be 05 00 00 00       	mov    $0x5,%esi
  402003:	bf d8 35 40 00       	mov    $0x4035d8,%edi
  402008:	b8 00 00 00 00       	mov    $0x0,%eax
  40200d:	e8 4e ed ff ff       	callq  400d60 <printf@plt>
  402012:	be 00 00 00 00       	mov    $0x0,%esi
  402017:	bf 00 00 00 00       	mov    $0x0,%edi
  40201c:	e8 4f fc ff ff       	callq  401c70 <notify_server>
  402021:	bf 01 00 00 00       	mov    $0x1,%edi
  402026:	e8 a5 ee ff ff       	callq  400ed0 <exit@plt>

000000000040202b <launch>:
  40202b:	55                   	push   %rbp
  40202c:	48 89 e5             	mov    %rsp,%rbp
  40202f:	48 89 fa             	mov    %rdi,%rdx
  402032:	48 8d 47 1e          	lea    0x1e(%rdi),%rax
  402036:	48 83 e0 f0          	and    $0xfffffffffffffff0,%rax
  40203a:	48 29 c4             	sub    %rax,%rsp
  40203d:	48 8d 7c 24 0f       	lea    0xf(%rsp),%rdi
  402042:	48 83 e7 f0          	and    $0xfffffffffffffff0,%rdi
  402046:	be f4 00 00 00       	mov    $0xf4,%esi
  40204b:	e8 20 ed ff ff       	callq  400d70 <memset@plt>
  402050:	48 8b 05 69 34 20 00 	mov    0x203469(%rip),%rax        # 6054c0 <stdin@@GLIBC_2.2.5>
  402057:	48 39 05 92 34 20 00 	cmp    %rax,0x203492(%rip)        # 6054f0 <infile>
  40205e:	74 29                	je     402089 <launch+0x5e>
  402060:	c7 05 92 34 20 00 00 	movl   $0x0,0x203492(%rip)        # 6054fc <vlevel>
  402067:	00 00 00 
  40206a:	b8 00 00 00 00       	mov    $0x0,%eax
  40206f:	e8 cc f9 ff ff       	callq  401a40 <test>
  402074:	83 3d 8d 34 20 00 00 	cmpl   $0x0,0x20348d(%rip)        # 605508 <is_checker>
  40207b:	75 1d                	jne    40209a <launch+0x6f>
  40207d:	bf 5c 34 40 00       	mov    $0x40345c,%edi
  402082:	e8 a9 ec ff ff       	callq  400d30 <puts@plt>
  402087:	c9                   	leaveq 
  402088:	c3                   	retq   
  402089:	bf 44 34 40 00       	mov    $0x403444,%edi
  40208e:	b8 00 00 00 00       	mov    $0x0,%eax
  402093:	e8 c8 ec ff ff       	callq  400d60 <printf@plt>
  402098:	eb c6                	jmp    402060 <launch+0x35>
  40209a:	bf 51 34 40 00       	mov    $0x403451,%edi
  40209f:	e8 8c ec ff ff       	callq  400d30 <puts@plt>
  4020a4:	b8 00 00 00 00       	mov    $0x0,%eax
  4020a9:	e8 41 fb ff ff       	callq  401bef <check_fail>

00000000004020ae <stable_launch>:
  4020ae:	53                   	push   %rbx
  4020af:	48 89 3d 32 34 20 00 	mov    %rdi,0x203432(%rip)        # 6054e8 <global_offset>
  4020b6:	41 b9 00 00 00 00    	mov    $0x0,%r9d
  4020bc:	41 b8 00 00 00 00    	mov    $0x0,%r8d
  4020c2:	b9 32 01 00 00       	mov    $0x132,%ecx
  4020c7:	ba 07 00 00 00       	mov    $0x7,%edx
  4020cc:	be 00 00 10 00       	mov    $0x100000,%esi
  4020d1:	bf 00 60 58 55       	mov    $0x55586000,%edi
  4020d6:	e8 75 ec ff ff       	callq  400d50 <mmap@plt>
  4020db:	48 89 c3             	mov    %rax,%rbx
  4020de:	48 3d 00 60 58 55    	cmp    $0x55586000,%rax
  4020e4:	75 43                	jne    402129 <stable_launch+0x7b>
  4020e6:	48 8d 90 f8 ff 0f 00 	lea    0xffff8(%rax),%rdx
  4020ed:	48 89 15 3c 40 20 00 	mov    %rdx,0x20403c(%rip)        # 606130 <stack_top>
  4020f4:	48 89 e0             	mov    %rsp,%rax
  4020f7:	48 89 d4             	mov    %rdx,%rsp
  4020fa:	48 89 c2             	mov    %rax,%rdx
  4020fd:	48 89 15 dc 33 20 00 	mov    %rdx,0x2033dc(%rip)        # 6054e0 <global_save_stack>
  402104:	48 8b 3d dd 33 20 00 	mov    0x2033dd(%rip),%rdi        # 6054e8 <global_offset>
  40210b:	e8 1b ff ff ff       	callq  40202b <launch>
  402110:	48 8b 05 c9 33 20 00 	mov    0x2033c9(%rip),%rax        # 6054e0 <global_save_stack>
  402117:	48 89 c4             	mov    %rax,%rsp
  40211a:	be 00 00 10 00       	mov    $0x100000,%esi
  40211f:	48 89 df             	mov    %rbx,%rdi
  402122:	e8 39 ed ff ff       	callq  400e60 <munmap@plt>
  402127:	5b                   	pop    %rbx
  402128:	c3                   	retq   
  402129:	be 00 00 10 00       	mov    $0x100000,%esi
  40212e:	48 89 c7             	mov    %rax,%rdi
  402131:	e8 2a ed ff ff       	callq  400e60 <munmap@plt>
  402136:	ba 00 60 58 55       	mov    $0x55586000,%edx
  40213b:	be 10 36 40 00       	mov    $0x403610,%esi
  402140:	48 8b 3d 89 33 20 00 	mov    0x203389(%rip),%rdi        # 6054d0 <stderr@@GLIBC_2.2.5>
  402147:	b8 00 00 00 00       	mov    $0x0,%eax
  40214c:	e8 8f ec ff ff       	callq  400de0 <fprintf@plt>
  402151:	bf 01 00 00 00       	mov    $0x1,%edi
  402156:	e8 75 ed ff ff       	callq  400ed0 <exit@plt>

000000000040215b <rio_readinitb>:
  40215b:	89 37                	mov    %esi,(%rdi)
  40215d:	c7 47 04 00 00 00 00 	movl   $0x0,0x4(%rdi)
  402164:	48 8d 47 10          	lea    0x10(%rdi),%rax
  402168:	48 89 47 08          	mov    %rax,0x8(%rdi)
  40216c:	c3                   	retq   

000000000040216d <sigalrm_handler>:
  40216d:	48 83 ec 08          	sub    $0x8,%rsp
  402171:	ba 00 00 00 00       	mov    $0x0,%edx
  402176:	be 50 36 40 00       	mov    $0x403650,%esi
  40217b:	48 8b 3d 4e 33 20 00 	mov    0x20334e(%rip),%rdi        # 6054d0 <stderr@@GLIBC_2.2.5>
  402182:	b8 00 00 00 00       	mov    $0x0,%eax
  402187:	e8 54 ec ff ff       	callq  400de0 <fprintf@plt>
  40218c:	bf 01 00 00 00       	mov    $0x1,%edi
  402191:	e8 3a ed ff ff       	callq  400ed0 <exit@plt>

0000000000402196 <urlencode>:
  402196:	41 54                	push   %r12
  402198:	55                   	push   %rbp
  402199:	53                   	push   %rbx
  40219a:	48 83 ec 10          	sub    $0x10,%rsp
  40219e:	48 89 fb             	mov    %rdi,%rbx
  4021a1:	48 89 f5             	mov    %rsi,%rbp
  4021a4:	48 c7 c1 ff ff ff ff 	mov    $0xffffffffffffffff,%rcx
  4021ab:	b8 00 00 00 00       	mov    $0x0,%eax
  4021b0:	f2 ae                	repnz scas %es:(%rdi),%al
  4021b2:	48 89 ce             	mov    %rcx,%rsi
  4021b5:	48 f7 d6             	not    %rsi
  4021b8:	8d 46 ff             	lea    -0x1(%rsi),%eax
  4021bb:	eb 0e                	jmp    4021cb <urlencode+0x35>
  4021bd:	88 45 00             	mov    %al,0x0(%rbp)
  4021c0:	48 8d 6d 01          	lea    0x1(%rbp),%rbp
  4021c4:	48 83 c3 01          	add    $0x1,%rbx
  4021c8:	44 89 e0             	mov    %r12d,%eax
  4021cb:	44 8d 60 ff          	lea    -0x1(%rax),%r12d
  4021cf:	85 c0                	test   %eax,%eax
  4021d1:	0f 84 91 00 00 00    	je     402268 <urlencode+0xd2>
  4021d7:	0f b6 03             	movzbl (%rbx),%eax
  4021da:	3c 2a                	cmp    $0x2a,%al
  4021dc:	0f 94 c1             	sete   %cl
  4021df:	3c 2d                	cmp    $0x2d,%al
  4021e1:	0f 94 c2             	sete   %dl
  4021e4:	08 d1                	or     %dl,%cl
  4021e6:	75 d5                	jne    4021bd <urlencode+0x27>
  4021e8:	3c 2e                	cmp    $0x2e,%al
  4021ea:	74 d1                	je     4021bd <urlencode+0x27>
  4021ec:	3c 5f                	cmp    $0x5f,%al
  4021ee:	74 cd                	je     4021bd <urlencode+0x27>
  4021f0:	8d 50 d0             	lea    -0x30(%rax),%edx
  4021f3:	80 fa 09             	cmp    $0x9,%dl
  4021f6:	76 c5                	jbe    4021bd <urlencode+0x27>
  4021f8:	8d 50 bf             	lea    -0x41(%rax),%edx
  4021fb:	80 fa 19             	cmp    $0x19,%dl
  4021fe:	76 bd                	jbe    4021bd <urlencode+0x27>
  402200:	8d 50 9f             	lea    -0x61(%rax),%edx
  402203:	80 fa 19             	cmp    $0x19,%dl
  402206:	76 b5                	jbe    4021bd <urlencode+0x27>
  402208:	3c 20                	cmp    $0x20,%al
  40220a:	74 4a                	je     402256 <urlencode+0xc0>
  40220c:	8d 50 e0             	lea    -0x20(%rax),%edx
  40220f:	80 fa 5f             	cmp    $0x5f,%dl
  402212:	0f 96 c1             	setbe  %cl
  402215:	3c 09                	cmp    $0x9,%al
  402217:	0f 94 c2             	sete   %dl
  40221a:	08 d1                	or     %dl,%cl
  40221c:	74 45                	je     402263 <urlencode+0xcd>
  40221e:	0f b6 d0             	movzbl %al,%edx
  402221:	be e8 36 40 00       	mov    $0x4036e8,%esi
  402226:	48 8d 7c 24 08       	lea    0x8(%rsp),%rdi
  40222b:	b8 00 00 00 00       	mov    $0x0,%eax
  402230:	e8 8b ec ff ff       	callq  400ec0 <sprintf@plt>
  402235:	0f b6 44 24 08       	movzbl 0x8(%rsp),%eax
  40223a:	88 45 00             	mov    %al,0x0(%rbp)
  40223d:	0f b6 44 24 09       	movzbl 0x9(%rsp),%eax
  402242:	88 45 01             	mov    %al,0x1(%rbp)
  402245:	0f b6 44 24 0a       	movzbl 0xa(%rsp),%eax
  40224a:	88 45 02             	mov    %al,0x2(%rbp)
  40224d:	48 8d 6d 03          	lea    0x3(%rbp),%rbp
  402251:	e9 6e ff ff ff       	jmpq   4021c4 <urlencode+0x2e>
  402256:	c6 45 00 2b          	movb   $0x2b,0x0(%rbp)
  40225a:	48 8d 6d 01          	lea    0x1(%rbp),%rbp
  40225e:	e9 61 ff ff ff       	jmpq   4021c4 <urlencode+0x2e>
  402263:	b8 ff ff ff ff       	mov    $0xffffffff,%eax
  402268:	48 83 c4 10          	add    $0x10,%rsp
  40226c:	5b                   	pop    %rbx
  40226d:	5d                   	pop    %rbp
  40226e:	41 5c                	pop    %r12
  402270:	c3                   	retq   

0000000000402271 <rio_writen>:
  402271:	41 55                	push   %r13
  402273:	41 54                	push   %r12
  402275:	55                   	push   %rbp
  402276:	53                   	push   %rbx
  402277:	48 83 ec 08          	sub    $0x8,%rsp
  40227b:	41 89 fc             	mov    %edi,%r12d
  40227e:	48 89 f5             	mov    %rsi,%rbp
  402281:	49 89 d5             	mov    %rdx,%r13
  402284:	48 89 d3             	mov    %rdx,%rbx
  402287:	eb 06                	jmp    40228f <rio_writen+0x1e>
  402289:	48 29 c3             	sub    %rax,%rbx
  40228c:	48 01 c5             	add    %rax,%rbp
  40228f:	48 85 db             	test   %rbx,%rbx
  402292:	74 24                	je     4022b8 <rio_writen+0x47>
  402294:	48 89 da             	mov    %rbx,%rdx
  402297:	48 89 ee             	mov    %rbp,%rsi
  40229a:	44 89 e7             	mov    %r12d,%edi
  40229d:	e8 9e ea ff ff       	callq  400d40 <write@plt>
  4022a2:	48 85 c0             	test   %rax,%rax
  4022a5:	7f e2                	jg     402289 <rio_writen+0x18>
  4022a7:	e8 44 ea ff ff       	callq  400cf0 <__errno_location@plt>
  4022ac:	83 38 04             	cmpl   $0x4,(%rax)
  4022af:	75 15                	jne    4022c6 <rio_writen+0x55>
  4022b1:	b8 00 00 00 00       	mov    $0x0,%eax
  4022b6:	eb d1                	jmp    402289 <rio_writen+0x18>
  4022b8:	4c 89 e8             	mov    %r13,%rax
  4022bb:	48 83 c4 08          	add    $0x8,%rsp
  4022bf:	5b                   	pop    %rbx
  4022c0:	5d                   	pop    %rbp
  4022c1:	41 5c                	pop    %r12
  4022c3:	41 5d                	pop    %r13
  4022c5:	c3                   	retq   
  4022c6:	48 c7 c0 ff ff ff ff 	mov    $0xffffffffffffffff,%rax
  4022cd:	eb ec                	jmp    4022bb <rio_writen+0x4a>

00000000004022cf <rio_read>:
  4022cf:	41 55                	push   %r13
  4022d1:	41 54                	push   %r12
  4022d3:	55                   	push   %rbp
  4022d4:	53                   	push   %rbx
  4022d5:	48 83 ec 08          	sub    $0x8,%rsp
  4022d9:	48 89 fb             	mov    %rdi,%rbx
  4022dc:	49 89 f5             	mov    %rsi,%r13
  4022df:	49 89 d4             	mov    %rdx,%r12
  4022e2:	eb 0a                	jmp    4022ee <rio_read+0x1f>
  4022e4:	e8 07 ea ff ff       	callq  400cf0 <__errno_location@plt>
  4022e9:	83 38 04             	cmpl   $0x4,(%rax)
  4022ec:	75 5c                	jne    40234a <rio_read+0x7b>
  4022ee:	8b 6b 04             	mov    0x4(%rbx),%ebp
  4022f1:	85 ed                	test   %ebp,%ebp
  4022f3:	7f 24                	jg     402319 <rio_read+0x4a>
  4022f5:	48 8d 6b 10          	lea    0x10(%rbx),%rbp
  4022f9:	ba 00 20 00 00       	mov    $0x2000,%edx
  4022fe:	48 89 ee             	mov    %rbp,%rsi
  402301:	8b 3b                	mov    (%rbx),%edi
  402303:	e8 98 ea ff ff       	callq  400da0 <read@plt>
  402308:	89 43 04             	mov    %eax,0x4(%rbx)
  40230b:	85 c0                	test   %eax,%eax
  40230d:	78 d5                	js     4022e4 <rio_read+0x15>
  40230f:	85 c0                	test   %eax,%eax
  402311:	74 40                	je     402353 <rio_read+0x84>
  402313:	48 89 6b 08          	mov    %rbp,0x8(%rbx)
  402317:	eb d5                	jmp    4022ee <rio_read+0x1f>
  402319:	89 e8                	mov    %ebp,%eax
  40231b:	4c 39 e0             	cmp    %r12,%rax
  40231e:	72 03                	jb     402323 <rio_read+0x54>
  402320:	44 89 e5             	mov    %r12d,%ebp
  402323:	4c 63 e5             	movslq %ebp,%r12
  402326:	48 8b 73 08          	mov    0x8(%rbx),%rsi
  40232a:	4c 89 e2             	mov    %r12,%rdx
  40232d:	4c 89 ef             	mov    %r13,%rdi
  402330:	e8 db ea ff ff       	callq  400e10 <memcpy@plt>
  402335:	4c 01 63 08          	add    %r12,0x8(%rbx)
  402339:	29 6b 04             	sub    %ebp,0x4(%rbx)
  40233c:	4c 89 e0             	mov    %r12,%rax
  40233f:	48 83 c4 08          	add    $0x8,%rsp
  402343:	5b                   	pop    %rbx
  402344:	5d                   	pop    %rbp
  402345:	41 5c                	pop    %r12
  402347:	41 5d                	pop    %r13
  402349:	c3                   	retq   
  40234a:	48 c7 c0 ff ff ff ff 	mov    $0xffffffffffffffff,%rax
  402351:	eb ec                	jmp    40233f <rio_read+0x70>
  402353:	b8 00 00 00 00       	mov    $0x0,%eax
  402358:	eb e5                	jmp    40233f <rio_read+0x70>

000000000040235a <rio_readlineb>:
  40235a:	41 55                	push   %r13
  40235c:	41 54                	push   %r12
  40235e:	55                   	push   %rbp
  40235f:	53                   	push   %rbx
  402360:	48 83 ec 18          	sub    $0x18,%rsp
  402364:	49 89 fd             	mov    %rdi,%r13
  402367:	48 89 f5             	mov    %rsi,%rbp
  40236a:	49 89 d4             	mov    %rdx,%r12
  40236d:	bb 01 00 00 00       	mov    $0x1,%ebx
  402372:	4c 39 e3             	cmp    %r12,%rbx
  402375:	73 47                	jae    4023be <rio_readlineb+0x64>
  402377:	ba 01 00 00 00       	mov    $0x1,%edx
  40237c:	48 8d 74 24 0f       	lea    0xf(%rsp),%rsi
  402381:	4c 89 ef             	mov    %r13,%rdi
  402384:	e8 46 ff ff ff       	callq  4022cf <rio_read>
  402389:	83 f8 01             	cmp    $0x1,%eax
  40238c:	75 1c                	jne    4023aa <rio_readlineb+0x50>
  40238e:	48 8d 45 01          	lea    0x1(%rbp),%rax
  402392:	0f b6 54 24 0f       	movzbl 0xf(%rsp),%edx
  402397:	88 55 00             	mov    %dl,0x0(%rbp)
  40239a:	80 7c 24 0f 0a       	cmpb   $0xa,0xf(%rsp)
  40239f:	74 1a                	je     4023bb <rio_readlineb+0x61>
  4023a1:	48 83 c3 01          	add    $0x1,%rbx
  4023a5:	48 89 c5             	mov    %rax,%rbp
  4023a8:	eb c8                	jmp    402372 <rio_readlineb+0x18>
  4023aa:	85 c0                	test   %eax,%eax
  4023ac:	75 22                	jne    4023d0 <rio_readlineb+0x76>
  4023ae:	48 83 fb 01          	cmp    $0x1,%rbx
  4023b2:	75 0a                	jne    4023be <rio_readlineb+0x64>
  4023b4:	b8 00 00 00 00       	mov    $0x0,%eax
  4023b9:	eb 0a                	jmp    4023c5 <rio_readlineb+0x6b>
  4023bb:	48 89 c5             	mov    %rax,%rbp
  4023be:	c6 45 00 00          	movb   $0x0,0x0(%rbp)
  4023c2:	48 89 d8             	mov    %rbx,%rax
  4023c5:	48 83 c4 18          	add    $0x18,%rsp
  4023c9:	5b                   	pop    %rbx
  4023ca:	5d                   	pop    %rbp
  4023cb:	41 5c                	pop    %r12
  4023cd:	41 5d                	pop    %r13
  4023cf:	c3                   	retq   
  4023d0:	48 c7 c0 ff ff ff ff 	mov    $0xffffffffffffffff,%rax
  4023d7:	eb ec                	jmp    4023c5 <rio_readlineb+0x6b>

00000000004023d9 <submitr>:
  4023d9:	41 57                	push   %r15
  4023db:	41 56                	push   %r14
  4023dd:	41 55                	push   %r13
  4023df:	41 54                	push   %r12
  4023e1:	55                   	push   %rbp
  4023e2:	53                   	push   %rbx
  4023e3:	48 81 ec 48 a0 00 00 	sub    $0xa048,%rsp
  4023ea:	49 89 fc             	mov    %rdi,%r12
  4023ed:	89 74 24 04          	mov    %esi,0x4(%rsp)
  4023f1:	49 89 d7             	mov    %rdx,%r15
  4023f4:	49 89 ce             	mov    %rcx,%r14
  4023f7:	4c 89 44 24 08       	mov    %r8,0x8(%rsp)
  4023fc:	4d 89 cd             	mov    %r9,%r13
  4023ff:	48 8b ac 24 80 a0 00 	mov    0xa080(%rsp),%rbp
  402406:	00 
  402407:	c7 84 24 1c 20 00 00 	movl   $0x0,0x201c(%rsp)
  40240e:	00 00 00 00 
  402412:	ba 00 00 00 00       	mov    $0x0,%edx
  402417:	be 01 00 00 00       	mov    $0x1,%esi
  40241c:	bf 02 00 00 00       	mov    $0x2,%edi
  402421:	e8 ca ea ff ff       	callq  400ef0 <socket@plt>
  402426:	85 c0                	test   %eax,%eax
  402428:	0f 88 c4 01 00 00    	js     4025f2 <submitr+0x219>
  40242e:	89 c3                	mov    %eax,%ebx
  402430:	4c 89 e7             	mov    %r12,%rdi
  402433:	e8 98 e9 ff ff       	callq  400dd0 <gethostbyname@plt>
  402438:	48 85 c0             	test   %rax,%rax
  40243b:	0f 84 00 02 00 00    	je     402641 <submitr+0x268>
  402441:	48 c7 84 24 30 a0 00 	movq   $0x0,0xa030(%rsp)
  402448:	00 00 00 00 00 
  40244d:	48 c7 84 24 38 a0 00 	movq   $0x0,0xa038(%rsp)
  402454:	00 00 00 00 00 
  402459:	66 c7 84 24 30 a0 00 	movw   $0x2,0xa030(%rsp)
  402460:	00 02 00 
  402463:	48 8b 48 18          	mov    0x18(%rax),%rcx
  402467:	48 63 50 14          	movslq 0x14(%rax),%rdx
  40246b:	48 8d b4 24 34 a0 00 	lea    0xa034(%rsp),%rsi
  402472:	00 
  402473:	48 8b 39             	mov    (%rcx),%rdi
  402476:	e8 f5 e9 ff ff       	callq  400e70 <bcopy@plt>
  40247b:	0f b7 44 24 04       	movzwl 0x4(%rsp),%eax
  402480:	66 c1 c8 08          	ror    $0x8,%ax
  402484:	66 89 84 24 32 a0 00 	mov    %ax,0xa032(%rsp)
  40248b:	00 
  40248c:	ba 10 00 00 00       	mov    $0x10,%edx
  402491:	48 8d b4 24 30 a0 00 	lea    0xa030(%rsp),%rsi
  402498:	00 
  402499:	89 df                	mov    %ebx,%edi
  40249b:	e8 40 ea ff ff       	callq  400ee0 <connect@plt>
  4024a0:	85 c0                	test   %eax,%eax
  4024a2:	0f 88 01 02 00 00    	js     4026a9 <submitr+0x2d0>
  4024a8:	48 c7 c6 ff ff ff ff 	mov    $0xffffffffffffffff,%rsi
  4024af:	b8 00 00 00 00       	mov    $0x0,%eax
  4024b4:	48 89 f1             	mov    %rsi,%rcx
  4024b7:	4c 89 ef             	mov    %r13,%rdi
  4024ba:	f2 ae                	repnz scas %es:(%rdi),%al
  4024bc:	48 89 ca             	mov    %rcx,%rdx
  4024bf:	48 f7 d2             	not    %rdx
  4024c2:	48 89 f1             	mov    %rsi,%rcx
  4024c5:	4c 89 ff             	mov    %r15,%rdi
  4024c8:	f2 ae                	repnz scas %es:(%rdi),%al
  4024ca:	48 f7 d1             	not    %rcx
  4024cd:	49 89 c8             	mov    %rcx,%r8
  4024d0:	48 89 f1             	mov    %rsi,%rcx
  4024d3:	4c 89 f7             	mov    %r14,%rdi
  4024d6:	f2 ae                	repnz scas %es:(%rdi),%al
  4024d8:	48 f7 d1             	not    %rcx
  4024db:	4d 8d 44 08 fe       	lea    -0x2(%r8,%rcx,1),%r8
  4024e0:	48 89 f1             	mov    %rsi,%rcx
  4024e3:	48 8b 7c 24 08       	mov    0x8(%rsp),%rdi
  4024e8:	f2 ae                	repnz scas %es:(%rdi),%al
  4024ea:	48 89 c8             	mov    %rcx,%rax
  4024ed:	48 f7 d0             	not    %rax
  4024f0:	49 8d 4c 00 ff       	lea    -0x1(%r8,%rax,1),%rcx
  4024f5:	48 8d 44 52 fd       	lea    -0x3(%rdx,%rdx,2),%rax
  4024fa:	48 8d 84 01 80 00 00 	lea    0x80(%rcx,%rax,1),%rax
  402501:	00 
  402502:	48 3d 00 20 00 00    	cmp    $0x2000,%rax
  402508:	0f 87 f5 01 00 00    	ja     402703 <submitr+0x32a>
  40250e:	48 8d b4 24 20 40 00 	lea    0x4020(%rsp),%rsi
  402515:	00 
  402516:	b9 00 04 00 00       	mov    $0x400,%ecx
  40251b:	b8 00 00 00 00       	mov    $0x0,%eax
  402520:	48 89 f7             	mov    %rsi,%rdi
  402523:	f3 48 ab             	rep stos %rax,%es:(%rdi)
  402526:	4c 89 ef             	mov    %r13,%rdi
  402529:	e8 68 fc ff ff       	callq  402196 <urlencode>
  40252e:	85 c0                	test   %eax,%eax
  402530:	0f 88 40 02 00 00    	js     402776 <submitr+0x39d>
  402536:	4c 8d ac 24 20 60 00 	lea    0x6020(%rsp),%r13
  40253d:	00 
  40253e:	4d 89 e1             	mov    %r12,%r9
  402541:	4c 8d 84 24 20 40 00 	lea    0x4020(%rsp),%r8
  402548:	00 
  402549:	4c 89 f9             	mov    %r15,%rcx
  40254c:	4c 89 f2             	mov    %r14,%rdx
  40254f:	be 78 36 40 00       	mov    $0x403678,%esi
  402554:	4c 89 ef             	mov    %r13,%rdi
  402557:	b8 00 00 00 00       	mov    $0x0,%eax
  40255c:	e8 5f e9 ff ff       	callq  400ec0 <sprintf@plt>
  402561:	48 c7 c1 ff ff ff ff 	mov    $0xffffffffffffffff,%rcx
  402568:	b8 00 00 00 00       	mov    $0x0,%eax
  40256d:	4c 89 ef             	mov    %r13,%rdi
  402570:	f2 ae                	repnz scas %es:(%rdi),%al
  402572:	48 89 ca             	mov    %rcx,%rdx
  402575:	48 f7 d2             	not    %rdx
  402578:	48 8d 52 ff          	lea    -0x1(%rdx),%rdx
  40257c:	4c 89 ee             	mov    %r13,%rsi
  40257f:	89 df                	mov    %ebx,%edi
  402581:	e8 eb fc ff ff       	callq  402271 <rio_writen>
  402586:	48 85 c0             	test   %rax,%rax
  402589:	0f 88 72 02 00 00    	js     402801 <submitr+0x428>
  40258f:	89 de                	mov    %ebx,%esi
  402591:	48 8d bc 24 20 80 00 	lea    0x8020(%rsp),%rdi
  402598:	00 
  402599:	e8 bd fb ff ff       	callq  40215b <rio_readinitb>
  40259e:	ba 00 20 00 00       	mov    $0x2000,%edx
  4025a3:	48 8d b4 24 20 60 00 	lea    0x6020(%rsp),%rsi
  4025aa:	00 
  4025ab:	48 8d bc 24 20 80 00 	lea    0x8020(%rsp),%rdi
  4025b2:	00 
  4025b3:	e8 a2 fd ff ff       	callq  40235a <rio_readlineb>
  4025b8:	48 85 c0             	test   %rax,%rax
  4025bb:	0f 8e af 02 00 00    	jle    402870 <submitr+0x497>
  4025c1:	4c 8d 44 24 10       	lea    0x10(%rsp),%r8
  4025c6:	48 8d 8c 24 1c 20 00 	lea    0x201c(%rsp),%rcx
  4025cd:	00 
  4025ce:	48 8d 94 24 20 20 00 	lea    0x2020(%rsp),%rdx
  4025d5:	00 
  4025d6:	be ef 36 40 00       	mov    $0x4036ef,%esi
  4025db:	48 8d bc 24 20 60 00 	lea    0x6020(%rsp),%rdi
  4025e2:	00 
  4025e3:	b8 00 00 00 00       	mov    $0x0,%eax
  4025e8:	e8 63 e8 ff ff       	callq  400e50 <__isoc99_sscanf@plt>
  4025ed:	e9 a7 03 00 00       	jmpq   402999 <submitr+0x5c0>
  4025f2:	48 b8 45 72 72 6f 72 	movabs $0x43203a726f727245,%rax
  4025f9:	3a 20 43 
  4025fc:	48 ba 6c 69 65 6e 74 	movabs $0x6e7520746e65696c,%rdx
  402603:	20 75 6e 
  402606:	48 89 45 00          	mov    %rax,0x0(%rbp)
  40260a:	48 89 55 08          	mov    %rdx,0x8(%rbp)
  40260e:	48 b8 61 62 6c 65 20 	movabs $0x206f7420656c6261,%rax
  402615:	74 6f 20 
  402618:	48 ba 63 72 65 61 74 	movabs $0x7320657461657263,%rdx
  40261f:	65 20 73 
  402622:	48 89 45 10          	mov    %rax,0x10(%rbp)
  402626:	48 89 55 18          	mov    %rdx,0x18(%rbp)
  40262a:	c7 45 20 6f 63 6b 65 	movl   $0x656b636f,0x20(%rbp)
  402631:	66 c7 45 24 74 00    	movw   $0x74,0x24(%rbp)
  402637:	b8 ff ff ff ff       	mov    $0xffffffff,%eax
  40263c:	e9 1f 03 00 00       	jmpq   402960 <submitr+0x587>
  402641:	48 b8 45 72 72 6f 72 	movabs $0x44203a726f727245,%rax
  402648:	3a 20 44 
  40264b:	48 ba 4e 53 20 69 73 	movabs $0x6e7520736920534e,%rdx
  402652:	20 75 6e 
  402655:	48 89 45 00          	mov    %rax,0x0(%rbp)
  402659:	48 89 55 08          	mov    %rdx,0x8(%rbp)
  40265d:	48 b8 61 62 6c 65 20 	movabs $0x206f7420656c6261,%rax
  402664:	74 6f 20 
  402667:	48 ba 72 65 73 6f 6c 	movabs $0x2065766c6f736572,%rdx
  40266e:	76 65 20 
  402671:	48 89 45 10          	mov    %rax,0x10(%rbp)
  402675:	48 89 55 18          	mov    %rdx,0x18(%rbp)
  402679:	48 b8 73 65 72 76 65 	movabs $0x6120726576726573,%rax
  402680:	72 20 61 
  402683:	48 89 45 20          	mov    %rax,0x20(%rbp)
  402687:	c7 45 28 64 64 72 65 	movl   $0x65726464,0x28(%rbp)
  40268e:	66 c7 45 2c 73 73    	movw   $0x7373,0x2c(%rbp)
  402694:	c6 45 2e 00          	movb   $0x0,0x2e(%rbp)
  402698:	89 df                	mov    %ebx,%edi
  40269a:	e8 f1 e6 ff ff       	callq  400d90 <close@plt>
  40269f:	b8 ff ff ff ff       	mov    $0xffffffff,%eax
  4026a4:	e9 b7 02 00 00       	jmpq   402960 <submitr+0x587>
  4026a9:	48 b8 45 72 72 6f 72 	movabs $0x55203a726f727245,%rax
  4026b0:	3a 20 55 
  4026b3:	48 ba 6e 61 62 6c 65 	movabs $0x6f7420656c62616e,%rdx
  4026ba:	20 74 6f 
  4026bd:	48 89 45 00          	mov    %rax,0x0(%rbp)
  4026c1:	48 89 55 08          	mov    %rdx,0x8(%rbp)
  4026c5:	48 b8 20 63 6f 6e 6e 	movabs $0x7463656e6e6f6320,%rax
  4026cc:	65 63 74 
  4026cf:	48 ba 20 74 6f 20 74 	movabs $0x20656874206f7420,%rdx
  4026d6:	68 65 20 
  4026d9:	48 89 45 10          	mov    %rax,0x10(%rbp)
  4026dd:	48 89 55 18          	mov    %rdx,0x18(%rbp)
  4026e1:	c7 45 20 73 65 72 76 	movl   $0x76726573,0x20(%rbp)
  4026e8:	66 c7 45 24 65 72    	movw   $0x7265,0x24(%rbp)
  4026ee:	c6 45 26 00          	movb   $0x0,0x26(%rbp)
  4026f2:	89 df                	mov    %ebx,%edi
  4026f4:	e8 97 e6 ff ff       	callq  400d90 <close@plt>
  4026f9:	b8 ff ff ff ff       	mov    $0xffffffff,%eax
  4026fe:	e9 5d 02 00 00       	jmpq   402960 <submitr+0x587>
  402703:	48 b8 45 72 72 6f 72 	movabs $0x52203a726f727245,%rax
  40270a:	3a 20 52 
  40270d:	48 ba 65 73 75 6c 74 	movabs $0x747320746c757365,%rdx
  402714:	20 73 74 
  402717:	48 89 45 00          	mov    %rax,0x0(%rbp)
  40271b:	48 89 55 08          	mov    %rdx,0x8(%rbp)
  40271f:	48 b8 72 69 6e 67 20 	movabs $0x6f6f7420676e6972,%rax
  402726:	74 6f 6f 
  402729:	48 ba 20 6c 61 72 67 	movabs $0x202e656772616c20,%rdx
  402730:	65 2e 20 
  402733:	48 89 45 10          	mov    %rax,0x10(%rbp)
  402737:	48 89 55 18          	mov    %rdx,0x18(%rbp)
  40273b:	48 b8 49 6e 63 72 65 	movabs $0x6573616572636e49,%rax
  402742:	61 73 65 
  402745:	48 ba 20 53 55 42 4d 	movabs $0x5254494d42555320,%rdx
  40274c:	49 54 52 
  40274f:	48 89 45 20          	mov    %rax,0x20(%rbp)
  402753:	48 89 55 28          	mov    %rdx,0x28(%rbp)
  402757:	48 b8 5f 4d 41 58 42 	movabs $0x46554258414d5f,%rax
  40275e:	55 46 00 
  402761:	48 89 45 30          	mov    %rax,0x30(%rbp)
  402765:	89 df                	mov    %ebx,%edi
  402767:	e8 24 e6 ff ff       	callq  400d90 <close@plt>
  40276c:	b8 ff ff ff ff       	mov    $0xffffffff,%eax
  402771:	e9 ea 01 00 00       	jmpq   402960 <submitr+0x587>
  402776:	48 b8 45 72 72 6f 72 	movabs $0x52203a726f727245,%rax
  40277d:	3a 20 52 
  402780:	48 ba 65 73 75 6c 74 	movabs $0x747320746c757365,%rdx
  402787:	20 73 74 
  40278a:	48 89 45 00          	mov    %rax,0x0(%rbp)
  40278e:	48 89 55 08          	mov    %rdx,0x8(%rbp)
  402792:	48 b8 72 69 6e 67 20 	movabs $0x6e6f6320676e6972,%rax
  402799:	63 6f 6e 
  40279c:	48 ba 74 61 69 6e 73 	movabs $0x6e6120736e696174,%rdx
  4027a3:	20 61 6e 
  4027a6:	48 89 45 10          	mov    %rax,0x10(%rbp)
  4027aa:	48 89 55 18          	mov    %rdx,0x18(%rbp)
  4027ae:	48 b8 20 69 6c 6c 65 	movabs $0x6c6167656c6c6920,%rax
  4027b5:	67 61 6c 
  4027b8:	48 ba 20 6f 72 20 75 	movabs $0x72706e7520726f20,%rdx
  4027bf:	6e 70 72 
  4027c2:	48 89 45 20          	mov    %rax,0x20(%rbp)
  4027c6:	48 89 55 28          	mov    %rdx,0x28(%rbp)
  4027ca:	48 b8 69 6e 74 61 62 	movabs $0x20656c6261746e69,%rax
  4027d1:	6c 65 20 
  4027d4:	48 ba 63 68 61 72 61 	movabs $0x6574636172616863,%rdx
  4027db:	63 74 65 
  4027de:	48 89 45 30          	mov    %rax,0x30(%rbp)
  4027e2:	48 89 55 38          	mov    %rdx,0x38(%rbp)
  4027e6:	66 c7 45 40 72 2e    	movw   $0x2e72,0x40(%rbp)
  4027ec:	c6 45 42 00          	movb   $0x0,0x42(%rbp)
  4027f0:	89 df                	mov    %ebx,%edi
  4027f2:	e8 99 e5 ff ff       	callq  400d90 <close@plt>
  4027f7:	b8 ff ff ff ff       	mov    $0xffffffff,%eax
  4027fc:	e9 5f 01 00 00       	jmpq   402960 <submitr+0x587>
  402801:	48 b8 45 72 72 6f 72 	movabs $0x43203a726f727245,%rax
  402808:	3a 20 43 
  40280b:	48 ba 6c 69 65 6e 74 	movabs $0x6e7520746e65696c,%rdx
  402812:	20 75 6e 
  402815:	48 89 45 00          	mov    %rax,0x0(%rbp)
  402819:	48 89 55 08          	mov    %rdx,0x8(%rbp)
  40281d:	48 b8 61 62 6c 65 20 	movabs $0x206f7420656c6261,%rax
  402824:	74 6f 20 
  402827:	48 ba 77 72 69 74 65 	movabs $0x6f74206574697277,%rdx
  40282e:	20 74 6f 
  402831:	48 89 45 10          	mov    %rax,0x10(%rbp)
  402835:	48 89 55 18          	mov    %rdx,0x18(%rbp)
  402839:	48 b8 20 74 68 65 20 	movabs $0x7365722065687420,%rax
  402840:	72 65 73 
  402843:	48 ba 75 6c 74 20 73 	movabs $0x7672657320746c75,%rdx
  40284a:	65 72 76 
  40284d:	48 89 45 20          	mov    %rax,0x20(%rbp)
  402851:	48 89 55 28          	mov    %rdx,0x28(%rbp)
  402855:	66 c7 45 30 65 72    	movw   $0x7265,0x30(%rbp)
  40285b:	c6 45 32 00          	movb   $0x0,0x32(%rbp)
  40285f:	89 df                	mov    %ebx,%edi
  402861:	e8 2a e5 ff ff       	callq  400d90 <close@plt>
  402866:	b8 ff ff ff ff       	mov    $0xffffffff,%eax
  40286b:	e9 f0 00 00 00       	jmpq   402960 <submitr+0x587>
  402870:	48 b8 45 72 72 6f 72 	movabs $0x43203a726f727245,%rax
  402877:	3a 20 43 
  40287a:	48 ba 6c 69 65 6e 74 	movabs $0x6e7520746e65696c,%rdx
  402881:	20 75 6e 
  402884:	48 89 45 00          	mov    %rax,0x0(%rbp)
  402888:	48 89 55 08          	mov    %rdx,0x8(%rbp)
  40288c:	48 b8 61 62 6c 65 20 	movabs $0x206f7420656c6261,%rax
  402893:	74 6f 20 
  402896:	48 ba 72 65 61 64 20 	movabs $0x7269662064616572,%rdx
  40289d:	66 69 72 
  4028a0:	48 89 45 10          	mov    %rax,0x10(%rbp)
  4028a4:	48 89 55 18          	mov    %rdx,0x18(%rbp)
  4028a8:	48 b8 73 74 20 68 65 	movabs $0x6564616568207473,%rax
  4028af:	61 64 65 
  4028b2:	48 ba 72 20 66 72 6f 	movabs $0x72206d6f72662072,%rdx
  4028b9:	6d 20 72 
  4028bc:	48 89 45 20          	mov    %rax,0x20(%rbp)
  4028c0:	48 89 55 28          	mov    %rdx,0x28(%rbp)
  4028c4:	48 b8 65 73 75 6c 74 	movabs $0x657320746c757365,%rax
  4028cb:	20 73 65 
  4028ce:	48 89 45 30          	mov    %rax,0x30(%rbp)
  4028d2:	c7 45 38 72 76 65 72 	movl   $0x72657672,0x38(%rbp)
  4028d9:	c6 45 3c 00          	movb   $0x0,0x3c(%rbp)
  4028dd:	89 df                	mov    %ebx,%edi
  4028df:	e8 ac e4 ff ff       	callq  400d90 <close@plt>
  4028e4:	b8 ff ff ff ff       	mov    $0xffffffff,%eax
  4028e9:	eb 75                	jmp    402960 <submitr+0x587>
  4028eb:	48 b8 45 72 72 6f 72 	movabs $0x43203a726f727245,%rax
  4028f2:	3a 20 43 
  4028f5:	48 ba 6c 69 65 6e 74 	movabs $0x6e7520746e65696c,%rdx
  4028fc:	20 75 6e 
  4028ff:	48 89 45 00          	mov    %rax,0x0(%rbp)
  402903:	48 89 55 08          	mov    %rdx,0x8(%rbp)
  402907:	48 b8 61 62 6c 65 20 	movabs $0x206f7420656c6261,%rax
  40290e:	74 6f 20 
  402911:	48 ba 72 65 61 64 20 	movabs $0x6165682064616572,%rdx
  402918:	68 65 61 
  40291b:	48 89 45 10          	mov    %rax,0x10(%rbp)
  40291f:	48 89 55 18          	mov    %rdx,0x18(%rbp)
  402923:	48 b8 64 65 72 73 20 	movabs $0x6f72662073726564,%rax
  40292a:	66 72 6f 
  40292d:	48 ba 6d 20 74 68 65 	movabs $0x657220656874206d,%rdx
  402934:	20 72 65 
  402937:	48 89 45 20          	mov    %rax,0x20(%rbp)
  40293b:	48 89 55 28          	mov    %rdx,0x28(%rbp)
  40293f:	48 b8 73 75 6c 74 20 	movabs $0x72657320746c7573,%rax
  402946:	73 65 72 
  402949:	48 89 45 30          	mov    %rax,0x30(%rbp)
  40294d:	c7 45 38 76 65 72 00 	movl   $0x726576,0x38(%rbp)
  402954:	89 df                	mov    %ebx,%edi
  402956:	e8 35 e4 ff ff       	callq  400d90 <close@plt>
  40295b:	b8 ff ff ff ff       	mov    $0xffffffff,%eax
  402960:	48 81 c4 48 a0 00 00 	add    $0xa048,%rsp
  402967:	5b                   	pop    %rbx
  402968:	5d                   	pop    %rbp
  402969:	41 5c                	pop    %r12
  40296b:	41 5d                	pop    %r13
  40296d:	41 5e                	pop    %r14
  40296f:	41 5f                	pop    %r15
  402971:	c3                   	retq   
  402972:	85 c0                	test   %eax,%eax
  402974:	74 47                	je     4029bd <submitr+0x5e4>
  402976:	ba 00 20 00 00       	mov    $0x2000,%edx
  40297b:	48 8d b4 24 20 60 00 	lea    0x6020(%rsp),%rsi
  402982:	00 
  402983:	48 8d bc 24 20 80 00 	lea    0x8020(%rsp),%rdi
  40298a:	00 
  40298b:	e8 ca f9 ff ff       	callq  40235a <rio_readlineb>
  402990:	48 85 c0             	test   %rax,%rax
  402993:	0f 8e 52 ff ff ff    	jle    4028eb <submitr+0x512>
  402999:	0f b6 84 24 20 60 00 	movzbl 0x6020(%rsp),%eax
  4029a0:	00 
  4029a1:	83 e8 0d             	sub    $0xd,%eax
  4029a4:	75 cc                	jne    402972 <submitr+0x599>
  4029a6:	0f b6 84 24 21 60 00 	movzbl 0x6021(%rsp),%eax
  4029ad:	00 
  4029ae:	83 e8 0a             	sub    $0xa,%eax
  4029b1:	75 bf                	jne    402972 <submitr+0x599>
  4029b3:	0f b6 84 24 22 60 00 	movzbl 0x6022(%rsp),%eax
  4029ba:	00 
  4029bb:	eb b5                	jmp    402972 <submitr+0x599>
  4029bd:	ba 00 20 00 00       	mov    $0x2000,%edx
  4029c2:	48 8d b4 24 20 60 00 	lea    0x6020(%rsp),%rsi
  4029c9:	00 
  4029ca:	48 8d bc 24 20 80 00 	lea    0x8020(%rsp),%rdi
  4029d1:	00 
  4029d2:	e8 83 f9 ff ff       	callq  40235a <rio_readlineb>
  4029d7:	48 85 c0             	test   %rax,%rax
  4029da:	0f 8e 97 00 00 00    	jle    402a77 <submitr+0x69e>
  4029e0:	8b 94 24 1c 20 00 00 	mov    0x201c(%rsp),%edx
  4029e7:	81 fa c8 00 00 00    	cmp    $0xc8,%edx
  4029ed:	0f 85 08 01 00 00    	jne    402afb <submitr+0x722>
  4029f3:	48 8d b4 24 20 60 00 	lea    0x6020(%rsp),%rsi
  4029fa:	00 
  4029fb:	48 89 ef             	mov    %rbp,%rdi
  4029fe:	e8 1d e3 ff ff       	callq  400d20 <strcpy@plt>
  402a03:	89 df                	mov    %ebx,%edi
  402a05:	e8 86 e3 ff ff       	callq  400d90 <close@plt>
  402a0a:	0f b6 45 00          	movzbl 0x0(%rbp),%eax
  402a0e:	83 e8 4f             	sub    $0x4f,%eax
  402a11:	89 c2                	mov    %eax,%edx
  402a13:	75 16                	jne    402a2b <submitr+0x652>
  402a15:	0f b6 45 01          	movzbl 0x1(%rbp),%eax
  402a19:	83 e8 4b             	sub    $0x4b,%eax
  402a1c:	75 0d                	jne    402a2b <submitr+0x652>
  402a1e:	0f b6 45 02          	movzbl 0x2(%rbp),%eax
  402a22:	83 e8 0a             	sub    $0xa,%eax
  402a25:	75 04                	jne    402a2b <submitr+0x652>
  402a27:	0f b6 45 03          	movzbl 0x3(%rbp),%eax
  402a2b:	85 c0                	test   %eax,%eax
  402a2d:	0f 84 2d ff ff ff    	je     402960 <submitr+0x587>
  402a33:	bf 00 37 40 00       	mov    $0x403700,%edi
  402a38:	b9 05 00 00 00       	mov    $0x5,%ecx
  402a3d:	48 89 ee             	mov    %rbp,%rsi
  402a40:	f3 a6                	repz cmpsb %es:(%rdi),%ds:(%rsi)
  402a42:	0f 97 c0             	seta   %al
  402a45:	0f 92 c1             	setb   %cl
  402a48:	29 c8                	sub    %ecx,%eax
  402a4a:	0f be c0             	movsbl %al,%eax
  402a4d:	85 c0                	test   %eax,%eax
  402a4f:	0f 84 0b ff ff ff    	je     402960 <submitr+0x587>
  402a55:	85 d2                	test   %edx,%edx
  402a57:	75 0f                	jne    402a68 <submitr+0x68f>
  402a59:	0f b6 45 01          	movzbl 0x1(%rbp),%eax
  402a5d:	83 e8 4b             	sub    $0x4b,%eax
  402a60:	89 c2                	mov    %eax,%edx
  402a62:	75 04                	jne    402a68 <submitr+0x68f>
  402a64:	0f b6 55 02          	movzbl 0x2(%rbp),%edx
  402a68:	85 d2                	test   %edx,%edx
  402a6a:	0f 85 b3 00 00 00    	jne    402b23 <submitr+0x74a>
  402a70:	89 d0                	mov    %edx,%eax
  402a72:	e9 e9 fe ff ff       	jmpq   402960 <submitr+0x587>
  402a77:	48 b8 45 72 72 6f 72 	movabs $0x43203a726f727245,%rax
  402a7e:	3a 20 43 
  402a81:	48 ba 6c 69 65 6e 74 	movabs $0x6e7520746e65696c,%rdx
  402a88:	20 75 6e 
  402a8b:	48 89 45 00          	mov    %rax,0x0(%rbp)
  402a8f:	48 89 55 08          	mov    %rdx,0x8(%rbp)
  402a93:	48 b8 61 62 6c 65 20 	movabs $0x206f7420656c6261,%rax
  402a9a:	74 6f 20 
  402a9d:	48 ba 72 65 61 64 20 	movabs $0x6174732064616572,%rdx
  402aa4:	73 74 61 
  402aa7:	48 89 45 10          	mov    %rax,0x10(%rbp)
  402aab:	48 89 55 18          	mov    %rdx,0x18(%rbp)
  402aaf:	48 b8 74 75 73 20 6d 	movabs $0x7373656d20737574,%rax
  402ab6:	65 73 73 
  402ab9:	48 ba 61 67 65 20 66 	movabs $0x6d6f726620656761,%rdx
  402ac0:	72 6f 6d 
  402ac3:	48 89 45 20          	mov    %rax,0x20(%rbp)
  402ac7:	48 89 55 28          	mov    %rdx,0x28(%rbp)
  402acb:	48 b8 20 72 65 73 75 	movabs $0x20746c7573657220,%rax
  402ad2:	6c 74 20 
  402ad5:	48 89 45 30          	mov    %rax,0x30(%rbp)
  402ad9:	c7 45 38 73 65 72 76 	movl   $0x76726573,0x38(%rbp)
  402ae0:	66 c7 45 3c 65 72    	movw   $0x7265,0x3c(%rbp)
  402ae6:	c6 45 3e 00          	movb   $0x0,0x3e(%rbp)
  402aea:	89 df                	mov    %ebx,%edi
  402aec:	e8 9f e2 ff ff       	callq  400d90 <close@plt>
  402af1:	b8 ff ff ff ff       	mov    $0xffffffff,%eax
  402af6:	e9 65 fe ff ff       	jmpq   402960 <submitr+0x587>
  402afb:	48 8d 4c 24 10       	lea    0x10(%rsp),%rcx
  402b00:	be b8 36 40 00       	mov    $0x4036b8,%esi
  402b05:	48 89 ef             	mov    %rbp,%rdi
  402b08:	b8 00 00 00 00       	mov    $0x0,%eax
  402b0d:	e8 ae e3 ff ff       	callq  400ec0 <sprintf@plt>
  402b12:	89 df                	mov    %ebx,%edi
  402b14:	e8 77 e2 ff ff       	callq  400d90 <close@plt>
  402b19:	b8 ff ff ff ff       	mov    $0xffffffff,%eax
  402b1e:	e9 3d fe ff ff       	jmpq   402960 <submitr+0x587>
  402b23:	b8 ff ff ff ff       	mov    $0xffffffff,%eax
  402b28:	e9 33 fe ff ff       	jmpq   402960 <submitr+0x587>

0000000000402b2d <init_timeout>:
  402b2d:	85 ff                	test   %edi,%edi
  402b2f:	74 26                	je     402b57 <init_timeout+0x2a>
  402b31:	53                   	push   %rbx
  402b32:	89 fb                	mov    %edi,%ebx
  402b34:	85 ff                	test   %edi,%edi
  402b36:	78 18                	js     402b50 <init_timeout+0x23>
  402b38:	be 6d 21 40 00       	mov    $0x40216d,%esi
  402b3d:	bf 0e 00 00 00       	mov    $0xe,%edi
  402b42:	e8 79 e2 ff ff       	callq  400dc0 <signal@plt>
  402b47:	89 df                	mov    %ebx,%edi
  402b49:	e8 32 e2 ff ff       	callq  400d80 <alarm@plt>
  402b4e:	5b                   	pop    %rbx
  402b4f:	c3                   	retq   
  402b50:	bb 00 00 00 00       	mov    $0x0,%ebx
  402b55:	eb e1                	jmp    402b38 <init_timeout+0xb>
  402b57:	f3 c3                	repz retq 

0000000000402b59 <init_driver>:
  402b59:	55                   	push   %rbp
  402b5a:	53                   	push   %rbx
  402b5b:	48 83 ec 18          	sub    $0x18,%rsp
  402b5f:	48 89 fd             	mov    %rdi,%rbp
  402b62:	be 01 00 00 00       	mov    $0x1,%esi
  402b67:	bf 0d 00 00 00       	mov    $0xd,%edi
  402b6c:	e8 4f e2 ff ff       	callq  400dc0 <signal@plt>
  402b71:	be 01 00 00 00       	mov    $0x1,%esi
  402b76:	bf 1d 00 00 00       	mov    $0x1d,%edi
  402b7b:	e8 40 e2 ff ff       	callq  400dc0 <signal@plt>
  402b80:	be 01 00 00 00       	mov    $0x1,%esi
  402b85:	bf 1d 00 00 00       	mov    $0x1d,%edi
  402b8a:	e8 31 e2 ff ff       	callq  400dc0 <signal@plt>
  402b8f:	ba 00 00 00 00       	mov    $0x0,%edx
  402b94:	be 01 00 00 00       	mov    $0x1,%esi
  402b99:	bf 02 00 00 00       	mov    $0x2,%edi
  402b9e:	e8 4d e3 ff ff       	callq  400ef0 <socket@plt>
  402ba3:	85 c0                	test   %eax,%eax
  402ba5:	78 7c                	js     402c23 <init_driver+0xca>
  402ba7:	89 c3                	mov    %eax,%ebx
  402ba9:	bf f9 31 40 00       	mov    $0x4031f9,%edi
  402bae:	e8 1d e2 ff ff       	callq  400dd0 <gethostbyname@plt>
  402bb3:	48 85 c0             	test   %rax,%rax
  402bb6:	0f 84 b3 00 00 00    	je     402c6f <init_driver+0x116>
  402bbc:	48 c7 04 24 00 00 00 	movq   $0x0,(%rsp)
  402bc3:	00 
  402bc4:	48 c7 44 24 08 00 00 	movq   $0x0,0x8(%rsp)
  402bcb:	00 00 
  402bcd:	66 c7 04 24 02 00    	movw   $0x2,(%rsp)
  402bd3:	48 8b 48 18          	mov    0x18(%rax),%rcx
  402bd7:	48 63 50 14          	movslq 0x14(%rax),%rdx
  402bdb:	48 8d 74 24 04       	lea    0x4(%rsp),%rsi
  402be0:	48 8b 39             	mov    (%rcx),%rdi
  402be3:	e8 88 e2 ff ff       	callq  400e70 <bcopy@plt>
  402be8:	66 c7 44 24 02 47 26 	movw   $0x2647,0x2(%rsp)
  402bef:	ba 10 00 00 00       	mov    $0x10,%edx
  402bf4:	48 89 e6             	mov    %rsp,%rsi
  402bf7:	89 df                	mov    %ebx,%edi
  402bf9:	e8 e2 e2 ff ff       	callq  400ee0 <connect@plt>
  402bfe:	85 c0                	test   %eax,%eax
  402c00:	0f 88 d1 00 00 00    	js     402cd7 <init_driver+0x17e>
  402c06:	89 df                	mov    %ebx,%edi
  402c08:	e8 83 e1 ff ff       	callq  400d90 <close@plt>
  402c0d:	66 c7 45 00 4f 4b    	movw   $0x4b4f,0x0(%rbp)
  402c13:	c6 45 02 00          	movb   $0x0,0x2(%rbp)
  402c17:	b8 00 00 00 00       	mov    $0x0,%eax
  402c1c:	48 83 c4 18          	add    $0x18,%rsp
  402c20:	5b                   	pop    %rbx
  402c21:	5d                   	pop    %rbp
  402c22:	c3                   	retq   
  402c23:	48 b8 45 72 72 6f 72 	movabs $0x43203a726f727245,%rax
  402c2a:	3a 20 43 
  402c2d:	48 ba 6c 69 65 6e 74 	movabs $0x6e7520746e65696c,%rdx
  402c34:	20 75 6e 
  402c37:	48 89 45 00          	mov    %rax,0x0(%rbp)
  402c3b:	48 89 55 08          	mov    %rdx,0x8(%rbp)
  402c3f:	48 b8 61 62 6c 65 20 	movabs $0x206f7420656c6261,%rax
  402c46:	74 6f 20 
  402c49:	48 ba 63 72 65 61 74 	movabs $0x7320657461657263,%rdx
  402c50:	65 20 73 
  402c53:	48 89 45 10          	mov    %rax,0x10(%rbp)
  402c57:	48 89 55 18          	mov    %rdx,0x18(%rbp)
  402c5b:	c7 45 20 6f 63 6b 65 	movl   $0x656b636f,0x20(%rbp)
  402c62:	66 c7 45 24 74 00    	movw   $0x74,0x24(%rbp)
  402c68:	b8 ff ff ff ff       	mov    $0xffffffff,%eax
  402c6d:	eb ad                	jmp    402c1c <init_driver+0xc3>
  402c6f:	48 b8 45 72 72 6f 72 	movabs $0x44203a726f727245,%rax
  402c76:	3a 20 44 
  402c79:	48 ba 4e 53 20 69 73 	movabs $0x6e7520736920534e,%rdx
  402c80:	20 75 6e 
  402c83:	48 89 45 00          	mov    %rax,0x0(%rbp)
  402c87:	48 89 55 08          	mov    %rdx,0x8(%rbp)
  402c8b:	48 b8 61 62 6c 65 20 	movabs $0x206f7420656c6261,%rax
  402c92:	74 6f 20 
  402c95:	48 ba 72 65 73 6f 6c 	movabs $0x2065766c6f736572,%rdx
  402c9c:	76 65 20 
  402c9f:	48 89 45 10          	mov    %rax,0x10(%rbp)
  402ca3:	48 89 55 18          	mov    %rdx,0x18(%rbp)
  402ca7:	48 b8 73 65 72 76 65 	movabs $0x6120726576726573,%rax
  402cae:	72 20 61 
  402cb1:	48 89 45 20          	mov    %rax,0x20(%rbp)
  402cb5:	c7 45 28 64 64 72 65 	movl   $0x65726464,0x28(%rbp)
  402cbc:	66 c7 45 2c 73 73    	movw   $0x7373,0x2c(%rbp)
  402cc2:	c6 45 2e 00          	movb   $0x0,0x2e(%rbp)
  402cc6:	89 df                	mov    %ebx,%edi
  402cc8:	e8 c3 e0 ff ff       	callq  400d90 <close@plt>
  402ccd:	b8 ff ff ff ff       	mov    $0xffffffff,%eax
  402cd2:	e9 45 ff ff ff       	jmpq   402c1c <init_driver+0xc3>
  402cd7:	48 b8 45 72 72 6f 72 	movabs $0x55203a726f727245,%rax
  402cde:	3a 20 55 
  402ce1:	48 ba 6e 61 62 6c 65 	movabs $0x6f7420656c62616e,%rdx
  402ce8:	20 74 6f 
  402ceb:	48 89 45 00          	mov    %rax,0x0(%rbp)
  402cef:	48 89 55 08          	mov    %rdx,0x8(%rbp)
  402cf3:	48 b8 20 63 6f 6e 6e 	movabs $0x7463656e6e6f6320,%rax
  402cfa:	65 63 74 
  402cfd:	48 ba 20 74 6f 20 73 	movabs $0x76726573206f7420,%rdx
  402d04:	65 72 76 
  402d07:	48 89 45 10          	mov    %rax,0x10(%rbp)
  402d0b:	48 89 55 18          	mov    %rdx,0x18(%rbp)
  402d0f:	66 c7 45 20 65 72    	movw   $0x7265,0x20(%rbp)
  402d15:	c6 45 22 00          	movb   $0x0,0x22(%rbp)
  402d19:	89 df                	mov    %ebx,%edi
  402d1b:	e8 70 e0 ff ff       	callq  400d90 <close@plt>
  402d20:	b8 ff ff ff ff       	mov    $0xffffffff,%eax
  402d25:	e9 f2 fe ff ff       	jmpq   402c1c <init_driver+0xc3>

0000000000402d2a <driver_post>:
  402d2a:	53                   	push   %rbx
  402d2b:	4c 89 cb             	mov    %r9,%rbx
  402d2e:	45 85 c0             	test   %r8d,%r8d
  402d31:	75 18                	jne    402d4b <driver_post+0x21>
  402d33:	48 85 ff             	test   %rdi,%rdi
  402d36:	74 05                	je     402d3d <driver_post+0x13>
  402d38:	80 3f 00             	cmpb   $0x0,(%rdi)
  402d3b:	75 30                	jne    402d6d <driver_post+0x43>
  402d3d:	66 c7 03 4f 4b       	movw   $0x4b4f,(%rbx)
  402d42:	c6 43 02 00          	movb   $0x0,0x2(%rbx)
  402d46:	44 89 c0             	mov    %r8d,%eax
  402d49:	5b                   	pop    %rbx
  402d4a:	c3                   	retq   
  402d4b:	48 89 ce             	mov    %rcx,%rsi
  402d4e:	bf 05 37 40 00       	mov    $0x403705,%edi
  402d53:	b8 00 00 00 00       	mov    $0x0,%eax
  402d58:	e8 03 e0 ff ff       	callq  400d60 <printf@plt>
  402d5d:	66 c7 03 4f 4b       	movw   $0x4b4f,(%rbx)
  402d62:	c6 43 02 00          	movb   $0x0,0x2(%rbx)
  402d66:	b8 00 00 00 00       	mov    $0x0,%eax
  402d6b:	eb dc                	jmp    402d49 <driver_post+0x1f>
  402d6d:	48 83 ec 08          	sub    $0x8,%rsp
  402d71:	41 51                	push   %r9
  402d73:	49 89 c9             	mov    %rcx,%r9
  402d76:	49 89 d0             	mov    %rdx,%r8
  402d79:	48 89 f9             	mov    %rdi,%rcx
  402d7c:	48 89 f2             	mov    %rsi,%rdx
  402d7f:	be 26 47 00 00       	mov    $0x4726,%esi
  402d84:	bf f9 31 40 00       	mov    $0x4031f9,%edi
  402d89:	e8 4b f6 ff ff       	callq  4023d9 <submitr>
  402d8e:	48 83 c4 10          	add    $0x10,%rsp
  402d92:	eb b5                	jmp    402d49 <driver_post+0x1f>

0000000000402d94 <check>:
  402d94:	89 f8                	mov    %edi,%eax
  402d96:	c1 e8 1c             	shr    $0x1c,%eax
  402d99:	85 c0                	test   %eax,%eax
  402d9b:	74 1d                	je     402dba <check+0x26>
  402d9d:	b9 00 00 00 00       	mov    $0x0,%ecx
  402da2:	83 f9 1f             	cmp    $0x1f,%ecx
  402da5:	7f 0d                	jg     402db4 <check+0x20>
  402da7:	89 f8                	mov    %edi,%eax
  402da9:	d3 e8                	shr    %cl,%eax
  402dab:	3c 0a                	cmp    $0xa,%al
  402dad:	74 11                	je     402dc0 <check+0x2c>
  402daf:	83 c1 08             	add    $0x8,%ecx
  402db2:	eb ee                	jmp    402da2 <check+0xe>
  402db4:	b8 01 00 00 00       	mov    $0x1,%eax
  402db9:	c3                   	retq   
  402dba:	b8 00 00 00 00       	mov    $0x0,%eax
  402dbf:	c3                   	retq   
  402dc0:	b8 00 00 00 00       	mov    $0x0,%eax
  402dc5:	c3                   	retq   

0000000000402dc6 <gencookie>:
  402dc6:	53                   	push   %rbx
  402dc7:	83 c7 01             	add    $0x1,%edi
  402dca:	e8 31 df ff ff       	callq  400d00 <srandom@plt>
  402dcf:	e8 5c e0 ff ff       	callq  400e30 <random@plt>
  402dd4:	89 c3                	mov    %eax,%ebx
  402dd6:	89 c7                	mov    %eax,%edi
  402dd8:	e8 b7 ff ff ff       	callq  402d94 <check>
  402ddd:	85 c0                	test   %eax,%eax
  402ddf:	74 ee                	je     402dcf <gencookie+0x9>
  402de1:	89 d8                	mov    %ebx,%eax
  402de3:	5b                   	pop    %rbx
  402de4:	c3                   	retq   
  402de5:	66 2e 0f 1f 84 00 00 	nopw   %cs:0x0(%rax,%rax,1)
  402dec:	00 00 00 
  402def:	90                   	nop

0000000000402df0 <__libc_csu_init>:
  402df0:	41 57                	push   %r15
  402df2:	41 89 ff             	mov    %edi,%r15d
  402df5:	41 56                	push   %r14
  402df7:	49 89 f6             	mov    %rsi,%r14
  402dfa:	41 55                	push   %r13
  402dfc:	49 89 d5             	mov    %rdx,%r13
  402dff:	41 54                	push   %r12
  402e01:	4c 8d 25 10 20 20 00 	lea    0x202010(%rip),%r12        # 604e18 <__frame_dummy_init_array_entry>
  402e08:	55                   	push   %rbp
  402e09:	48 8d 2d 10 20 20 00 	lea    0x202010(%rip),%rbp        # 604e20 <__init_array_end>
  402e10:	53                   	push   %rbx
  402e11:	4c 29 e5             	sub    %r12,%rbp
  402e14:	31 db                	xor    %ebx,%ebx
  402e16:	48 c1 fd 03          	sar    $0x3,%rbp
  402e1a:	48 83 ec 08          	sub    $0x8,%rsp
  402e1e:	e8 8d de ff ff       	callq  400cb0 <_init>
  402e23:	48 85 ed             	test   %rbp,%rbp
  402e26:	74 1e                	je     402e46 <__libc_csu_init+0x56>
  402e28:	0f 1f 84 00 00 00 00 	nopl   0x0(%rax,%rax,1)
  402e2f:	00 
  402e30:	4c 89 ea             	mov    %r13,%rdx
  402e33:	4c 89 f6             	mov    %r14,%rsi
  402e36:	44 89 ff             	mov    %r15d,%edi
  402e39:	41 ff 14 dc          	callq  *(%r12,%rbx,8)
  402e3d:	48 83 c3 01          	add    $0x1,%rbx
  402e41:	48 39 eb             	cmp    %rbp,%rbx
  402e44:	75 ea                	jne    402e30 <__libc_csu_init+0x40>
  402e46:	48 83 c4 08          	add    $0x8,%rsp
  402e4a:	5b                   	pop    %rbx
  402e4b:	5d                   	pop    %rbp
  402e4c:	41 5c                	pop    %r12
  402e4e:	41 5d                	pop    %r13
  402e50:	41 5e                	pop    %r14
  402e52:	41 5f                	pop    %r15
  402e54:	c3                   	retq   
  402e55:	90                   	nop
  402e56:	66 2e 0f 1f 84 00 00 	nopw   %cs:0x0(%rax,%rax,1)
  402e5d:	00 00 00 

0000000000402e60 <__libc_csu_fini>:
  402e60:	f3 c3                	repz retq 

Disassembly of section .fini:

0000000000402e64 <_fini>:
  402e64:	48 83 ec 08          	sub    $0x8,%rsp
  402e68:	48 83 c4 08          	add    $0x8,%rsp
  402e6c:	c3                   	retq   
